(lp0
(ccopy_reg
_reconstructor
p1
(c__main__
TraceDataInfo
p2
c__builtin__
object
p3
Ntp4
Rp5
(dp6
S'fqname'
p7
S'cea.demand.demand_main.<module>'
p8
sS'path'
p9
S'C:\\Users\\darthoma\\Documents\\GitHub\\CityEnergyAnalyst\\cea\\demand\\demand_main.py'
p10
sS'name'
p11
S'<module>'
p12
sS'module'
p13
S'cea.demand.demand_main'
p14
sbg1
(g2
g3
Ntp15
Rp16
(dp17
g7
S'cea.demand.occupancy_model.<module>'
p18
sg9
S'C:\\Users\\darthoma\\Documents\\GitHub\\CityEnergyAnalyst\\cea\\demand\\occupancy_model.py'
p19
sg11
g12
sg13
S'cea.demand.occupancy_model'
p20
sbtp21
a(g1
(g2
g3
Ntp22
Rp23
(dp24
g7
S'cea.demand.demand_main.<module>'
p25
sg9
g10
sg11
g12
sg13
g14
sbg1
(g2
g3
Ntp26
Rp27
(dp28
g7
S'cea.demand.thermal_loads.<module>'
p29
sg9
S'C:\\Users\\darthoma\\Documents\\GitHub\\CityEnergyAnalyst\\cea\\demand\\thermal_loads.py'
p30
sg11
g12
sg13
S'cea.demand.thermal_loads'
p31
sbtp32
a(g1
(g2
g3
Ntp33
Rp34
(dp35
g7
S'cea.demand.thermal_loads.<module>'
p36
sg9
g30
sg11
g12
sg13
g31
sbg1
(g2
g3
Ntp37
Rp38
(dp39
g7
S'cea.demand.rc_model_crank_nicholson_procedure.<module>'
p40
sg9
S'C:\\Users\\darthoma\\Documents\\GitHub\\CityEnergyAnalyst\\cea\\demand\\rc_model_crank_nicholson_procedure.py'
p41
sg11
g12
sg13
S'cea.demand.rc_model_crank_nicholson_procedure'
p42
sbtp43
a(g1
(g2
g3
Ntp44
Rp45
(dp46
g7
S'cea.demand.rc_model_crank_nicholson_procedure.<module>'
p47
sg9
g41
sg11
g12
sg13
g42
sbg1
(g2
g3
Ntp48
Rp49
(dp50
g7
S'cea.demand.airconditioning_model.<module>'
p51
sg9
S'C:\\Users\\darthoma\\Documents\\GitHub\\CityEnergyAnalyst\\cea\\demand\\airconditioning_model.py'
p52
sg11
g12
sg13
S'cea.demand.airconditioning_model'
p53
sbtp54
a(g1
(g2
g3
Ntp55
Rp56
(dp57
g7
S'cea.demand.airconditioning_model.<module>'
p58
sg9
g52
sg11
g12
sg13
g53
sbg1
(g2
g3
Ntp59
Rp60
(dp61
g7
S'cea.utilities.<module>'
p62
sg9
S'C:\\Users\\darthoma\\Documents\\GitHub\\CityEnergyAnalyst\\cea\\utilities\\__init__.py'
p63
sg11
g12
sg13
S'cea.utilities'
p64
sbtp65
a(g1
(g2
g3
Ntp66
Rp67
(dp68
g7
S'cea.demand.airconditioning_model.<module>'
p69
sg9
g52
sg11
g12
sg13
g53
sbg1
(g2
g3
Ntp70
Rp71
(dp72
g7
S'cea.utilities.physics.<module>'
p73
sg9
S'C:\\Users\\darthoma\\Documents\\GitHub\\CityEnergyAnalyst\\cea\\utilities\\physics.py'
p74
sg11
g12
sg13
S'cea.utilities.physics'
p75
sbtp76
a(g1
(g2
g3
Ntp77
Rp78
(dp79
g7
S'cea.demand.rc_model_crank_nicholson_procedure.<module>'
p80
sg9
g41
sg11
g12
sg13
g42
sbg1
(g2
g3
Ntp81
Rp82
(dp83
g7
S'cea.demand.rc_model_SIA.<module>'
p84
sg9
S'C:\\Users\\darthoma\\Documents\\GitHub\\CityEnergyAnalyst\\cea\\demand\\rc_model_SIA.py'
p85
sg11
g12
sg13
S'cea.demand.rc_model_SIA'
p86
sbtp87
a(g1
(g2
g3
Ntp88
Rp89
(dp90
g7
S'cea.demand.rc_model_SIA.<module>'
p91
sg9
g85
sg11
g12
sg13
g86
sbg1
(g2
g3
Ntp92
Rp93
(dp94
g7
S'cea.demand.time_step_data_t.<module>'
p95
sg9
S'C:\\Users\\darthoma\\Documents\\GitHub\\CityEnergyAnalyst\\cea\\demand\\time_step_data_t.py'
p96
sg11
g12
sg13
S'cea.demand.time_step_data_t'
p97
sbtp98
a(g1
(g2
g3
Ntp99
Rp100
(dp101
g7
S'cea.demand.time_step_data_t.<module>'
p102
sg9
g96
sg11
g12
sg13
g97
sbg1
(g2
g3
Ntp103
Rp104
(dp105
g7
S'cea.demand.time_step_data_t.TimeStepDataT'
p106
sg9
S'C:\\Users\\darthoma\\Documents\\GitHub\\CityEnergyAnalyst\\cea\\demand\\time_step_data_t.py'
p107
sg11
S'TimeStepDataT'
p108
sg13
g97
sbtp109
a(g1
(g2
g3
Ntp110
Rp111
(dp112
g7
S'cea.demand.rc_model_crank_nicholson_procedure.<module>'
p113
sg9
g41
sg11
g12
sg13
g42
sbg1
(g2
g3
Ntp114
Rp115
(dp116
g7
S'cea.demand.control_heating_cooling_systems.<module>'
p117
sg9
S'C:\\Users\\darthoma\\Documents\\GitHub\\CityEnergyAnalyst\\cea\\demand\\control_heating_cooling_systems.py'
p118
sg11
g12
sg13
S'cea.demand.control_heating_cooling_systems'
p119
sbtp120
a(g1
(g2
g3
Ntp121
Rp122
(dp123
g7
S'cea.demand.control_heating_cooling_systems.<module>'
p124
sg9
g118
sg11
g12
sg13
g119
sbg1
(g2
g3
Ntp125
Rp126
(dp127
g7
S'cea.utilities.helpers.<module>'
p128
sg9
S'C:\\Users\\darthoma\\Documents\\GitHub\\CityEnergyAnalyst\\cea\\utilities\\helpers.py'
p129
sg11
g12
sg13
S'cea.utilities.helpers'
p130
sbtp131
a(g1
(g2
g3
Ntp132
Rp133
(dp134
g7
S'cea.demand.rc_model_crank_nicholson_procedure.<module>'
p135
sg9
g41
sg11
g12
sg13
g42
sbg1
(g2
g3
Ntp136
Rp137
(dp138
g7
S'cea.demand.space_emission_systems.<module>'
p139
sg9
S'C:\\Users\\darthoma\\Documents\\GitHub\\CityEnergyAnalyst\\cea\\demand\\space_emission_systems.py'
p140
sg11
g12
sg13
S'cea.demand.space_emission_systems'
p141
sbtp142
a(g1
(g2
g3
Ntp143
Rp144
(dp145
g7
S'cea.demand.thermal_loads.<module>'
p146
sg9
g30
sg11
g12
sg13
g31
sbg1
(g2
g3
Ntp147
Rp148
(dp149
g7
S'cea.demand.ventilation_air_flows_simple.<module>'
p150
sg9
S'C:\\Users\\darthoma\\Documents\\GitHub\\CityEnergyAnalyst\\cea\\demand\\ventilation_air_flows_simple.py'
p151
sg11
g12
sg13
S'cea.demand.ventilation_air_flows_simple'
p152
sbtp153
a(g1
(g2
g3
Ntp154
Rp155
(dp156
g7
S'cea.demand.ventilation_air_flows_simple.<module>'
p157
sg9
g151
sg11
g12
sg13
g152
sbg1
(g2
g3
Ntp158
Rp159
(dp160
g7
S'cea.demand.control_ventilation_systems.<module>'
p161
sg9
S'C:\\Users\\darthoma\\Documents\\GitHub\\CityEnergyAnalyst\\cea\\demand\\control_ventilation_systems.py'
p162
sg11
g12
sg13
S'cea.demand.control_ventilation_systems'
p163
sbtp164
a(g1
(g2
g3
Ntp165
Rp166
(dp167
g7
S'cea.demand.thermal_loads.<module>'
p168
sg9
g30
sg11
g12
sg13
g31
sbg1
(g2
g3
Ntp169
Rp170
(dp171
g7
S'cea.demand.sensible_loads.<module>'
p172
sg9
S'C:\\Users\\darthoma\\Documents\\GitHub\\CityEnergyAnalyst\\cea\\demand\\sensible_loads.py'
p173
sg11
g12
sg13
S'cea.demand.sensible_loads'
p174
sbtp175
a(g1
(g2
g3
Ntp176
Rp177
(dp178
g7
S'cea.demand.thermal_loads.<module>'
p179
sg9
g30
sg11
g12
sg13
g31
sbg1
(g2
g3
Ntp180
Rp181
(dp182
g7
S'cea.demand.electrical_loads.<module>'
p183
sg9
S'C:\\Users\\darthoma\\Documents\\GitHub\\CityEnergyAnalyst\\cea\\demand\\electrical_loads.py'
p184
sg11
g12
sg13
S'cea.demand.electrical_loads'
p185
sbtp186
a(g1
(g2
g3
Ntp187
Rp188
(dp189
g7
S'cea.demand.thermal_loads.<module>'
p190
sg9
g30
sg11
g12
sg13
g31
sbg1
(g2
g3
Ntp191
Rp192
(dp193
g7
S'cea.demand.hotwater_loads.<module>'
p194
sg9
S'C:\\Users\\darthoma\\Documents\\GitHub\\CityEnergyAnalyst\\cea\\demand\\hotwater_loads.py'
p195
sg11
g12
sg13
S'cea.demand.hotwater_loads'
p196
sbtp197
a(g1
(g2
g3
Ntp198
Rp199
(dp200
g7
S'cea.demand.hotwater_loads.<module>'
p201
sg9
g195
sg11
g12
sg13
g196
sbg1
(g2
g3
Ntp202
Rp203
(dp204
g7
S'cea.technologies.<module>'
p205
sg9
S'C:\\Users\\darthoma\\Documents\\GitHub\\CityEnergyAnalyst\\cea\\technologies\\__init__.py'
p206
sg11
g12
sg13
S'cea.technologies'
p207
sbtp208
a(g1
(g2
g3
Ntp209
Rp210
(dp211
g7
S'cea.demand.hotwater_loads.<module>'
p212
sg9
g195
sg11
g12
sg13
g196
sbg1
(g2
g3
Ntp213
Rp214
(dp215
g7
S'cea.technologies.storagetank.<module>'
p216
sg9
S'C:\\Users\\darthoma\\Documents\\GitHub\\CityEnergyAnalyst\\cea\\technologies\\storagetank.py'
p217
sg11
g12
sg13
S'cea.technologies.storagetank'
p218
sbtp219
a(g1
(g2
g3
Ntp220
Rp221
(dp222
g7
S'cea.demand.thermal_loads.<module>'
p223
sg9
g30
sg11
g12
sg13
g31
sbg1
(g2
g3
Ntp224
Rp225
(dp226
g7
S'cea.demand.refrigeration_loads.<module>'
p227
sg9
S'C:\\Users\\darthoma\\Documents\\GitHub\\CityEnergyAnalyst\\cea\\demand\\refrigeration_loads.py'
p228
sg11
g12
sg13
S'cea.demand.refrigeration_loads'
p229
sbtp230
a(g1
(g2
g3
Ntp231
Rp232
(dp233
g7
S'cea.demand.thermal_loads.<module>'
p234
sg9
g30
sg11
g12
sg13
g31
sbg1
(g2
g3
Ntp235
Rp236
(dp237
g7
S'cea.demand.datacenter_loads.<module>'
p238
sg9
S'C:\\Users\\darthoma\\Documents\\GitHub\\CityEnergyAnalyst\\cea\\demand\\datacenter_loads.py'
p239
sg11
g12
sg13
S'cea.demand.datacenter_loads'
p240
sbtp241
a(g1
(g2
g3
Ntp242
Rp243
(dp244
g7
S'cea.demand.thermal_loads.<module>'
p245
sg9
g30
sg11
g12
sg13
g31
sbg1
(g2
g3
Ntp246
Rp247
(dp248
g7
S'cea.technologies.controllers.<module>'
p249
sg9
S'C:\\Users\\darthoma\\Documents\\GitHub\\CityEnergyAnalyst\\cea\\technologies\\controllers.py'
p250
sg11
g12
sg13
S'cea.technologies.controllers'
p251
sbtp252
a(g1
(g2
g3
Ntp253
Rp254
(dp255
g7
S'cea.demand.thermal_loads.<module>'
p256
sg9
g30
sg11
g12
sg13
g31
sbg1
(g2
g3
Ntp257
Rp258
(dp259
g7
S'cea.demand.thermal_loads.BuildingProperties'
p260
sg9
S'C:\\Users\\darthoma\\Documents\\GitHub\\CityEnergyAnalyst\\cea\\demand\\thermal_loads.py'
p261
sg11
S'BuildingProperties'
p262
sg13
g31
sbtp263
a(g1
(g2
g3
Ntp264
Rp265
(dp266
g7
S'cea.demand.thermal_loads.<module>'
p267
sg9
g30
sg11
g12
sg13
g31
sbg1
(g2
g3
Ntp268
Rp269
(dp270
g7
S'cea.demand.thermal_loads.BuildingPropertiesRow'
p271
sg9
S'C:\\Users\\darthoma\\Documents\\GitHub\\CityEnergyAnalyst\\cea\\demand\\thermal_loads.py'
p272
sg11
S'BuildingPropertiesRow'
p273
sg13
g31
sbtp274
a(g1
(g2
g3
Ntp275
Rp276
(dp277
g7
S'cea.demand.thermal_loads.<module>'
p278
sg9
g30
sg11
g12
sg13
g31
sbg1
(g2
g3
Ntp279
Rp280
(dp281
g7
S'cea.demand.thermal_loads.ArchitectureProperties'
p282
sg9
S'C:\\Users\\darthoma\\Documents\\GitHub\\CityEnergyAnalyst\\cea\\demand\\thermal_loads.py'
p283
sg11
S'ArchitectureProperties'
p284
sg13
g31
sbtp285
a(g1
(g2
g3
Ntp286
Rp287
(dp288
g7
S'cea.demand.thermal_loads.<module>'
p289
sg9
g30
sg11
g12
sg13
g31
sbg1
(g2
g3
Ntp290
Rp291
(dp292
g7
S'cea.demand.thermal_loads.SolarProperties'
p293
sg9
S'C:\\Users\\darthoma\\Documents\\GitHub\\CityEnergyAnalyst\\cea\\demand\\thermal_loads.py'
p294
sg11
S'SolarProperties'
p295
sg13
g31
sbtp296
a(g1
(g2
g3
Ntp297
Rp298
(dp299
g7
S'cea.demand.demand_main.<module>'
p300
sg9
g10
sg11
g12
sg13
g14
sbg1
(g2
g3
Ntp301
Rp302
(dp303
g7
S'cea.utilities.epwreader.<module>'
p304
sg9
S'C:\\Users\\darthoma\\Documents\\GitHub\\CityEnergyAnalyst\\cea\\utilities\\epwreader.py'
p305
sg11
g12
sg13
S'cea.utilities.epwreader'
p306
sbtp307
a(g1
(g2
g3
Ntp308
Rp309
(dp310
g7
S'cea.utilities.epwreader.<module>'
p311
sg9
g305
sg11
g12
sg13
g306
sbg1
(g2
g3
Ntp312
Rp313
(dp314
g7
S'cea.globalvar.GlobalVariables.__init__'
p315
sg9
S'C:\\Users\\darthoma\\Documents\\GitHub\\CityEnergyAnalyst\\cea\\globalvar.py'
p316
sg11
S'__init__'
p317
sg13
S'cea.globalvar'
p318
sbtp319
a(g1
(g2
g3
Ntp320
Rp321
(dp322
g7
S'cea.globalvar.GlobalVariables.__init__'
p323
sg9
g316
sg11
g317
sg13
g318
sbg1
(g2
g3
Ntp324
Rp325
(dp326
g7
S'cea.demand.demand_writers.HourlyDemandWriter.__init__'
p327
sg9
S'C:\\Users\\darthoma\\Documents\\GitHub\\CityEnergyAnalyst\\cea\\demand\\demand_writers.py'
p328
sg11
g317
sg13
S'cea.demand.demand_writers'
p329
sbtp330
a(g1
(g2
g3
Ntp331
Rp332
(dp333
g7
S'cea.demand.demand_writers.HourlyDemandWriter.__init__'
p334
sg9
g328
sg11
g317
sg13
g329
sbg1
(g2
g3
Ntp335
Rp336
(dp337
g7
S'cea.demand.demand_writers.HourlyDemandWriter.__init__'
p338
sg9
S'C:\\Users\\darthoma\\Documents\\GitHub\\CityEnergyAnalyst\\cea\\demand\\demand_writers.py'
p339
sg11
g317
sg13
g329
sbtp340
a(g1
(g2
g3
Ntp341
Rp342
(dp343
g7
S'cea.demand.demand_main.demand_calculation'
p344
sg9
S'C:\\Users\\darthoma\\Documents\\GitHub\\CityEnergyAnalyst\\cea\\demand\\demand_main.py'
p345
sg11
S'demand_calculation'
p346
sg13
g14
sbg1
(g2
g3
Ntp347
Rp348
(dp349
g7
S'cea.inputlocator.InputLocator.get_radiation'
p350
sg9
S'C:\\Users\\darthoma\\Documents\\GitHub\\CityEnergyAnalyst\\cea\\inputlocator.py'
p351
sg11
S'get_radiation'
p352
sg13
S'cea.inputlocator'
p353
sbtp354
a(g1
(g2
g3
Ntp355
Rp356
(dp357
g7
S'cea.inputlocator.InputLocator.get_radiation'
p358
sg9
g351
sg11
g352
sg13
g353
sbg1
(g2
g3
Ntp359
Rp360
(dp361
g7
S'cea.inputlocator.InputLocator.get_solar_radiation_folder'
p362
sg9
S'C:\\Users\\darthoma\\Documents\\GitHub\\CityEnergyAnalyst\\cea\\inputlocator.py'
p363
sg11
S'get_solar_radiation_folder'
p364
sg13
g353
sbtp365
a(g1
(g2
g3
Ntp366
Rp367
(dp368
g7
S'cea.inputlocator.InputLocator.get_solar_radiation_folder'
p369
sg9
g363
sg11
g364
sg13
g353
sbg1
(g2
g3
Ntp370
Rp371
(dp372
g7
S'cea.inputlocator._ensure_folder'
p373
sg9
S'C:\\Users\\darthoma\\Documents\\GitHub\\CityEnergyAnalyst\\cea\\inputlocator.py'
p374
sg11
S'_ensure_folder'
p375
sg13
g353
sbtp376
a(g1
(g2
g3
Ntp377
Rp378
(dp379
g7
S'cea.demand.demand_main.demand_calculation'
p380
sg9
g345
sg11
g346
sg13
g14
sbg1
(g2
g3
Ntp381
Rp382
(dp383
g7
S'cea.inputlocator.InputLocator.get_surface_properties'
p384
sg9
S'C:\\Users\\darthoma\\Documents\\GitHub\\CityEnergyAnalyst\\cea\\inputlocator.py'
p385
sg11
S'get_surface_properties'
p386
sg13
g353
sbtp387
a(g1
(g2
g3
Ntp388
Rp389
(dp390
g7
S'cea.inputlocator.InputLocator.get_surface_properties'
p391
sg9
g385
sg11
g386
sg13
g353
sbg1
(g2
g3
Ntp392
Rp393
(dp394
g7
S'cea.inputlocator.InputLocator.get_solar_radiation_folder'
p395
sg9
g363
sg11
g364
sg13
g353
sbtp396
a(g1
(g2
g3
Ntp397
Rp398
(dp399
g7
S'cea.demand.demand_main.demand_calculation'
p400
sg9
g345
sg11
g346
sg13
g14
sbg1
(g2
g3
Ntp401
Rp402
(dp403
g7
S'cea.utilities.epwreader.epw_reader'
p404
sg9
S'C:\\Users\\darthoma\\Documents\\GitHub\\CityEnergyAnalyst\\cea\\utilities\\epwreader.py'
p405
sg11
S'epw_reader'
p406
sg13
g306
sbtp407
a(g1
(g2
g3
Ntp408
Rp409
(dp410
g7
S'cea.utilities.epwreader.epw_reader'
p411
sg9
g405
sg11
g406
sg13
g306
sbg1
(g2
g3
Ntp412
Rp413
(dp414
g7
S'cea.utilities.epwreader.calc_skytemp'
p415
sg9
S'C:\\Users\\darthoma\\Documents\\GitHub\\CityEnergyAnalyst\\cea\\utilities\\epwreader.py'
p416
sg11
S'calc_skytemp'
p417
sg13
g306
sbtp418
a(g1
(g2
g3
Ntp419
Rp420
(dp421
g7
S'cea.demand.demand_main.demand_calculation'
p422
sg9
g345
sg11
g346
sg13
g14
sbg1
(g2
g3
Ntp423
Rp424
(dp425
g7
S'cea.demand.thermal_loads.BuildingProperties.__init__'
p426
sg9
S'C:\\Users\\darthoma\\Documents\\GitHub\\CityEnergyAnalyst\\cea\\demand\\thermal_loads.py'
p427
sg11
g317
sg13
g31
sbtp428
a(g1
(g2
g3
Ntp429
Rp430
(dp431
g7
S'cea.demand.thermal_loads.BuildingProperties.__init__'
p432
sg9
g427
sg11
g317
sg13
g31
sbg1
(g2
g3
Ntp433
Rp434
(dp435
g7
S'cea.geometry.<module>'
p436
sg9
S'C:\\Users\\darthoma\\Documents\\GitHub\\CityEnergyAnalyst\\cea\\geometry\\__init__.py'
p437
sg11
g12
sg13
S'cea.geometry'
p438
sbtp439
a(g1
(g2
g3
Ntp440
Rp441
(dp442
g7
S'cea.demand.thermal_loads.BuildingProperties.__init__'
p443
sg9
g427
sg11
g317
sg13
g31
sbg1
(g2
g3
Ntp444
Rp445
(dp446
g7
S'cea.geometry.geometry_reader.<module>'
p447
sg9
S'C:\\Users\\darthoma\\Documents\\GitHub\\CityEnergyAnalyst\\cea\\geometry\\geometry_reader.py'
p448
sg11
g12
sg13
S'cea.geometry.geometry_reader'
p449
sbtp450
a(g1
(g2
g3
Ntp451
Rp452
(dp453
g7
S'cea.demand.thermal_loads.BuildingProperties.__init__'
p454
sg9
g427
sg11
g317
sg13
g31
sbg1
(g2
g3
Ntp455
Rp456
(dp457
g7
S'cea.globalvar.GlobalVariables.log'
p458
sg9
S'C:\\Users\\darthoma\\Documents\\GitHub\\CityEnergyAnalyst\\cea\\globalvar.py'
p459
sg11
S'log'
p460
sg13
g318
sbtp461
a(g1
(g2
g3
Ntp462
Rp463
(dp464
g7
S'cea.demand.thermal_loads.BuildingProperties.__init__'
p465
sg9
g427
sg11
g317
sg13
g31
sbg1
(g2
g3
Ntp466
Rp467
(dp468
g7
S'cea.inputlocator.InputLocator.get_surface_properties'
p469
sg9
g385
sg11
g386
sg13
g353
sbtp470
a(g1
(g2
g3
Ntp471
Rp472
(dp473
g7
S'cea.demand.thermal_loads.BuildingProperties.__init__'
p474
sg9
g427
sg11
g317
sg13
g31
sbg1
(g2
g3
Ntp475
Rp476
(dp477
g7
S'cea.inputlocator.InputLocator.get_zone_geometry'
p478
sg9
S'C:\\Users\\darthoma\\Documents\\GitHub\\CityEnergyAnalyst\\cea\\inputlocator.py'
p479
sg11
S'get_zone_geometry'
p480
sg13
g353
sbtp481
a(g1
(g2
g3
Ntp482
Rp483
(dp484
g7
S'cea.demand.thermal_loads.BuildingProperties.__init__'
p485
sg9
g427
sg11
g317
sg13
g31
sbg1
(g2
g3
Ntp486
Rp487
(dp488
g7
S'cea.inputlocator.InputLocator.get_building_hvac'
p489
sg9
S'C:\\Users\\darthoma\\Documents\\GitHub\\CityEnergyAnalyst\\cea\\inputlocator.py'
p490
sg11
S'get_building_hvac'
p491
sg13
g353
sbtp492
a(g1
(g2
g3
Ntp493
Rp494
(dp495
g7
S'cea.demand.thermal_loads.BuildingProperties.__init__'
p496
sg9
g427
sg11
g317
sg13
g31
sbg1
(g2
g3
Ntp497
Rp498
(dp499
g7
S'cea.inputlocator.InputLocator.get_building_thermal'
p500
sg9
S'C:\\Users\\darthoma\\Documents\\GitHub\\CityEnergyAnalyst\\cea\\inputlocator.py'
p501
sg11
S'get_building_thermal'
p502
sg13
g353
sbtp503
a(g1
(g2
g3
Ntp504
Rp505
(dp506
g7
S'cea.demand.thermal_loads.BuildingProperties.__init__'
p507
sg9
g427
sg11
g317
sg13
g31
sbg1
(g2
g3
Ntp508
Rp509
(dp510
g7
S'cea.inputlocator.InputLocator.get_building_occupancy'
p511
sg9
S'C:\\Users\\darthoma\\Documents\\GitHub\\CityEnergyAnalyst\\cea\\inputlocator.py'
p512
sg11
S'get_building_occupancy'
p513
sg13
g353
sbtp514
a(g1
(g2
g3
Ntp515
Rp516
(dp517
g7
S'cea.demand.thermal_loads.BuildingProperties.__init__'
p518
sg9
g427
sg11
g317
sg13
g31
sbg1
(g2
g3
Ntp519
Rp520
(dp521
g7
S'cea.inputlocator.InputLocator.get_building_architecture'
p522
sg9
S'C:\\Users\\darthoma\\Documents\\GitHub\\CityEnergyAnalyst\\cea\\inputlocator.py'
p523
sg11
S'get_building_architecture'
p524
sg13
g353
sbtp525
a(g1
(g2
g3
Ntp526
Rp527
(dp528
g7
S'cea.demand.thermal_loads.BuildingProperties.__init__'
p529
sg9
g427
sg11
g317
sg13
g31
sbg1
(g2
g3
Ntp530
Rp531
(dp532
g7
S'cea.inputlocator.InputLocator.get_building_age'
p533
sg9
S'C:\\Users\\darthoma\\Documents\\GitHub\\CityEnergyAnalyst\\cea\\inputlocator.py'
p534
sg11
S'get_building_age'
p535
sg13
g353
sbtp536
a(g1
(g2
g3
Ntp537
Rp538
(dp539
g7
S'cea.demand.thermal_loads.BuildingProperties.__init__'
p540
sg9
g427
sg11
g317
sg13
g31
sbg1
(g2
g3
Ntp541
Rp542
(dp543
g7
S'cea.inputlocator.InputLocator.get_building_comfort'
p544
sg9
S'C:\\Users\\darthoma\\Documents\\GitHub\\CityEnergyAnalyst\\cea\\inputlocator.py'
p545
sg11
S'get_building_comfort'
p546
sg13
g353
sbtp547
a(g1
(g2
g3
Ntp548
Rp549
(dp550
g7
S'cea.demand.thermal_loads.BuildingProperties.__init__'
p551
sg9
g427
sg11
g317
sg13
g31
sbg1
(g2
g3
Ntp552
Rp553
(dp554
g7
S'cea.inputlocator.InputLocator.get_building_internal'
p555
sg9
S'C:\\Users\\darthoma\\Documents\\GitHub\\CityEnergyAnalyst\\cea\\inputlocator.py'
p556
sg11
S'get_building_internal'
p557
sg13
g353
sbtp558
a(g1
(g2
g3
Ntp559
Rp560
(dp561
g7
S'cea.demand.thermal_loads.BuildingProperties.__init__'
p562
sg9
g427
sg11
g317
sg13
g31
sbg1
(g2
g3
Ntp563
Rp564
(dp565
g7
S'cea.demand.thermal_loads.get_prop_solar'
p566
sg9
S'C:\\Users\\darthoma\\Documents\\GitHub\\CityEnergyAnalyst\\cea\\demand\\thermal_loads.py'
p567
sg11
S'get_prop_solar'
p568
sg13
g31
sbtp569
a(g1
(g2
g3
Ntp570
Rp571
(dp572
g7
S'cea.demand.thermal_loads.get_prop_solar'
p573
sg9
g567
sg11
g568
sg13
g31
sbg1
(g2
g3
Ntp574
Rp575
(dp576
g7
S'cea.inputlocator.InputLocator.get_radiation'
p577
sg9
g351
sg11
g352
sg13
g353
sbtp578
a(g1
(g2
g3
Ntp579
Rp580
(dp581
g7
S'cea.demand.thermal_loads.get_prop_solar'
p582
sg9
g567
sg11
g568
sg13
g31
sbg1
(g2
g3
Ntp583
Rp584
(dp585
g7
S'cea.inputlocator.InputLocator.get_surface_properties'
p586
sg9
g385
sg11
g386
sg13
g353
sbtp587
a(g1
(g2
g3
Ntp588
Rp589
(dp590
g7
S'cea.demand.thermal_loads.BuildingProperties.__init__'
p591
sg9
g427
sg11
g317
sg13
g31
sbg1
(g2
g3
Ntp592
Rp593
(dp594
g7
S'cea.demand.thermal_loads.get_temperatures'
p595
sg9
S'C:\\Users\\darthoma\\Documents\\GitHub\\CityEnergyAnalyst\\cea\\demand\\thermal_loads.py'
p596
sg11
S'get_temperatures'
p597
sg13
g31
sbtp598
a(g1
(g2
g3
Ntp599
Rp600
(dp601
g7
S'cea.demand.thermal_loads.get_temperatures'
p602
sg9
g596
sg11
g597
sg13
g31
sbg1
(g2
g3
Ntp603
Rp604
(dp605
g7
S'cea.inputlocator.InputLocator.get_technical_emission_systems'
p606
sg9
S'C:\\Users\\darthoma\\Documents\\GitHub\\CityEnergyAnalyst\\cea\\inputlocator.py'
p607
sg11
S'get_technical_emission_systems'
p608
sg13
g353
sbtp609
a(g1
(g2
g3
Ntp610
Rp611
(dp612
g7
S'cea.demand.thermal_loads.BuildingProperties.__init__'
p613
sg9
g427
sg11
g317
sg13
g31
sbg1
(g2
g3
Ntp614
Rp615
(dp616
g7
S'cea.demand.thermal_loads.get_envelope_properties'
p617
sg9
S'C:\\Users\\darthoma\\Documents\\GitHub\\CityEnergyAnalyst\\cea\\demand\\thermal_loads.py'
p618
sg11
S'get_envelope_properties'
p619
sg13
g31
sbtp620
a(g1
(g2
g3
Ntp621
Rp622
(dp623
g7
S'cea.demand.thermal_loads.get_envelope_properties'
p624
sg9
g618
sg11
g619
sg13
g31
sbg1
(g2
g3
Ntp625
Rp626
(dp627
g7
S'cea.inputlocator.InputLocator.get_envelope_systems'
p628
sg9
S'C:\\Users\\darthoma\\Documents\\GitHub\\CityEnergyAnalyst\\cea\\inputlocator.py'
p629
sg11
S'get_envelope_systems'
p630
sg13
g353
sbtp631
a(g1
(g2
g3
Ntp632
Rp633
(dp634
g7
S'cea.demand.thermal_loads.BuildingProperties.__init__'
p635
sg9
g427
sg11
g317
sg13
g31
sbg1
(g2
g3
Ntp636
Rp637
(dp638
g7
S'cea.inputlocator.InputLocator.get_building_overrides'
p639
sg9
S'C:\\Users\\darthoma\\Documents\\GitHub\\CityEnergyAnalyst\\cea\\inputlocator.py'
p640
sg11
S'get_building_overrides'
p641
sg13
g353
sbtp642
a(g1
(g2
g3
Ntp643
Rp644
(dp645
g7
S'cea.demand.thermal_loads.BuildingProperties.__init__'
p646
sg9
g427
sg11
g317
sg13
g31
sbg1
(g2
g3
Ntp647
Rp648
(dp649
g7
S'cea.demand.thermal_loads.BuildingProperties.calc_prop_rc_model'
p650
sg9
S'C:\\Users\\darthoma\\Documents\\GitHub\\CityEnergyAnalyst\\cea\\demand\\thermal_loads.py'
p651
sg11
S'calc_prop_rc_model'
p652
sg13
g31
sbtp653
a(g1
(g2
g3
Ntp654
Rp655
(dp656
g7
S'cea.demand.thermal_loads.BuildingProperties.calc_prop_rc_model'
p657
sg9
g651
sg11
g652
sg13
g31
sbg1
(g2
g3
Ntp658
Rp659
(dp660
g7
S'cea.demand.thermal_loads.BuildingProperties.get_overrides_columns'
p661
sg9
S'C:\\Users\\darthoma\\Documents\\GitHub\\CityEnergyAnalyst\\cea\\demand\\thermal_loads.py'
p662
sg11
S'get_overrides_columns'
p663
sg13
g31
sbtp664
a(g1
(g2
g3
Ntp665
Rp666
(dp667
g7
S'cea.demand.thermal_loads.BuildingProperties.calc_prop_rc_model'
p668
sg9
g651
sg11
g652
sg13
g31
sbg1
(g2
g3
Ntp669
Rp670
(dp671
g7
S'cea.demand.thermal_loads.BuildingProperties.lookup_specific_heat_capacity'
p672
sg9
S'C:\\Users\\darthoma\\Documents\\GitHub\\CityEnergyAnalyst\\cea\\demand\\thermal_loads.py'
p673
sg11
S'lookup_specific_heat_capacity'
p674
sg13
g31
sbtp675
a(g1
(g2
g3
Ntp676
Rp677
(dp678
g7
S'cea.demand.thermal_loads.BuildingProperties.calc_prop_rc_model'
p679
sg9
g651
sg11
g652
sg13
g31
sbg1
(g2
g3
Ntp680
Rp681
(dp682
g7
S'cea.demand.thermal_loads.BuildingProperties.lookup_effective_mass_area_factor'
p683
sg9
S'C:\\Users\\darthoma\\Documents\\GitHub\\CityEnergyAnalyst\\cea\\demand\\thermal_loads.py'
p684
sg11
S'lookup_effective_mass_area_factor'
p685
sg13
g31
sbtp686
a(g1
(g2
g3
Ntp687
Rp688
(dp689
g7
S'cea.demand.thermal_loads.BuildingProperties.__init__'
p690
sg9
g427
sg11
g317
sg13
g31
sbg1
(g2
g3
Ntp691
Rp692
(dp693
g7
S'cea.geometry.geometry_reader.create_windows'
p694
sg9
S'C:\\Users\\darthoma\\Documents\\GitHub\\CityEnergyAnalyst\\cea\\geometry\\geometry_reader.py'
p695
sg11
S'create_windows'
p696
sg13
g449
sbtp697
a(g1
(g2
g3
Ntp698
Rp699
(dp700
g7
S'cea.demand.demand_main.demand_calculation'
p701
sg9
g345
sg11
g346
sg13
g14
sbg1
(g2
g3
Ntp702
Rp703
(dp704
g7
S'cea.demand.occupancy_model.schedule_maker'
p705
sg9
S'C:\\Users\\darthoma\\Documents\\GitHub\\CityEnergyAnalyst\\cea\\demand\\occupancy_model.py'
p706
sg11
S'schedule_maker'
p707
sg13
g20
sbtp708
a(g1
(g2
g3
Ntp709
Rp710
(dp711
g7
S'cea.demand.occupancy_model.schedule_maker'
p712
sg9
g706
sg11
g707
sg13
g20
sbg1
(g2
g3
Ntp713
Rp714
(dp715
g7
S'cea.inputlocator.InputLocator.get_archetypes_schedules'
p716
sg9
S'C:\\Users\\darthoma\\Documents\\GitHub\\CityEnergyAnalyst\\cea\\inputlocator.py'
p717
sg11
S'get_archetypes_schedules'
p718
sg13
g353
sbtp719
a(g1
(g2
g3
Ntp720
Rp721
(dp722
g7
S'cea.demand.occupancy_model.schedule_maker'
p723
sg9
g706
sg11
g707
sg13
g20
sbg1
(g2
g3
Ntp724
Rp725
(dp726
g7
S'cea.demand.occupancy_model.read_schedules'
p727
sg9
S'C:\\Users\\darthoma\\Documents\\GitHub\\CityEnergyAnalyst\\cea\\demand\\occupancy_model.py'
p728
sg11
S'read_schedules'
p729
sg13
g20
sbtp730
a(g1
(g2
g3
Ntp731
Rp732
(dp733
g7
S'cea.demand.occupancy_model.schedule_maker'
p734
sg9
g706
sg11
g707
sg13
g20
sbg1
(g2
g3
Ntp735
Rp736
(dp737
g7
S'cea.demand.occupancy_model.get_yearly_vectors'
p738
sg9
S'C:\\Users\\darthoma\\Documents\\GitHub\\CityEnergyAnalyst\\cea\\demand\\occupancy_model.py'
p739
sg11
S'get_yearly_vectors'
p740
sg13
g20
sbtp741
a(g1
(g2
g3
Ntp742
Rp743
(dp744
g7
S'cea.demand.demand_main.demand_calculation'
p745
sg9
g345
sg11
g346
sg13
g14
sbg1
(g2
g3
Ntp746
Rp747
(dp748
g7
S'cea.demand.thermal_loads.BuildingProperties.list_building_names'
p749
sg9
S'C:\\Users\\darthoma\\Documents\\GitHub\\CityEnergyAnalyst\\cea\\demand\\thermal_loads.py'
p750
sg11
S'list_building_names'
p751
sg13
g31
sbtp752
a(g1
(g2
g3
Ntp753
Rp754
(dp755
g7
S'cea.demand.demand_main.demand_calculation'
p756
sg9
g345
sg11
g346
sg13
g14
sbg1
(g2
g3
Ntp757
Rp758
(dp759
g7
S'cea.demand.demand_main.thermal_loads_all_buildings'
p760
sg9
S'C:\\Users\\darthoma\\Documents\\GitHub\\CityEnergyAnalyst\\cea\\demand\\demand_main.py'
p761
sg11
S'thermal_loads_all_buildings'
p762
sg13
g14
sbtp763
a(g1
(g2
g3
Ntp764
Rp765
(dp766
g7
S'cea.demand.demand_main.thermal_loads_all_buildings'
p767
sg9
g761
sg11
g762
sg13
g14
sbg1
(g2
g3
Ntp768
Rp769
(dp770
g7
S'cea.demand.thermal_loads.BuildingProperties.__getitem__'
p771
sg9
S'C:\\Users\\darthoma\\Documents\\GitHub\\CityEnergyAnalyst\\cea\\demand\\thermal_loads.py'
p772
sg11
S'__getitem__'
p773
sg13
g31
sbtp774
a(g1
(g2
g3
Ntp775
Rp776
(dp777
g7
S'cea.demand.thermal_loads.BuildingProperties.__getitem__'
p778
sg9
g772
sg11
g773
sg13
g31
sbg1
(g2
g3
Ntp779
Rp780
(dp781
g7
S'cea.demand.thermal_loads.BuildingProperties.get_prop_geometry'
p782
sg9
S'C:\\Users\\darthoma\\Documents\\GitHub\\CityEnergyAnalyst\\cea\\demand\\thermal_loads.py'
p783
sg11
S'get_prop_geometry'
p784
sg13
g31
sbtp785
a(g1
(g2
g3
Ntp786
Rp787
(dp788
g7
S'cea.demand.thermal_loads.BuildingProperties.__getitem__'
p789
sg9
g772
sg11
g773
sg13
g31
sbg1
(g2
g3
Ntp790
Rp791
(dp792
g7
S'cea.demand.thermal_loads.BuildingProperties.get_prop_architecture'
p793
sg9
S'C:\\Users\\darthoma\\Documents\\GitHub\\CityEnergyAnalyst\\cea\\demand\\thermal_loads.py'
p794
sg11
S'get_prop_architecture'
p795
sg13
g31
sbtp796
a(g1
(g2
g3
Ntp797
Rp798
(dp799
g7
S'cea.demand.thermal_loads.BuildingProperties.__getitem__'
p800
sg9
g772
sg11
g773
sg13
g31
sbg1
(g2
g3
Ntp801
Rp802
(dp803
g7
S'cea.demand.thermal_loads.BuildingProperties.get_prop_occupancy'
p804
sg9
S'C:\\Users\\darthoma\\Documents\\GitHub\\CityEnergyAnalyst\\cea\\demand\\thermal_loads.py'
p805
sg11
S'get_prop_occupancy'
p806
sg13
g31
sbtp807
a(g1
(g2
g3
Ntp808
Rp809
(dp810
g7
S'cea.demand.thermal_loads.BuildingProperties.__getitem__'
p811
sg9
g772
sg11
g773
sg13
g31
sbg1
(g2
g3
Ntp812
Rp813
(dp814
g7
S'cea.demand.thermal_loads.BuildingProperties.get_prop_hvac'
p815
sg9
S'C:\\Users\\darthoma\\Documents\\GitHub\\CityEnergyAnalyst\\cea\\demand\\thermal_loads.py'
p816
sg11
S'get_prop_hvac'
p817
sg13
g31
sbtp818
a(g1
(g2
g3
Ntp819
Rp820
(dp821
g7
S'cea.demand.thermal_loads.BuildingProperties.__getitem__'
p822
sg9
g772
sg11
g773
sg13
g31
sbg1
(g2
g3
Ntp823
Rp824
(dp825
g7
S'cea.demand.thermal_loads.BuildingProperties.get_prop_rc_model'
p826
sg9
S'C:\\Users\\darthoma\\Documents\\GitHub\\CityEnergyAnalyst\\cea\\demand\\thermal_loads.py'
p827
sg11
S'get_prop_rc_model'
p828
sg13
g31
sbtp829
a(g1
(g2
g3
Ntp830
Rp831
(dp832
g7
S'cea.demand.thermal_loads.BuildingProperties.__getitem__'
p833
sg9
g772
sg11
g773
sg13
g31
sbg1
(g2
g3
Ntp834
Rp835
(dp836
g7
S'cea.demand.thermal_loads.BuildingProperties.get_prop_comfort'
p837
sg9
S'C:\\Users\\darthoma\\Documents\\GitHub\\CityEnergyAnalyst\\cea\\demand\\thermal_loads.py'
p838
sg11
S'get_prop_comfort'
p839
sg13
g31
sbtp840
a(g1
(g2
g3
Ntp841
Rp842
(dp843
g7
S'cea.demand.thermal_loads.BuildingProperties.__getitem__'
p844
sg9
g772
sg11
g773
sg13
g31
sbg1
(g2
g3
Ntp845
Rp846
(dp847
g7
S'cea.demand.thermal_loads.BuildingProperties.get_prop_internal_loads'
p848
sg9
S'C:\\Users\\darthoma\\Documents\\GitHub\\CityEnergyAnalyst\\cea\\demand\\thermal_loads.py'
p849
sg11
S'get_prop_internal_loads'
p850
sg13
g31
sbtp851
a(g1
(g2
g3
Ntp852
Rp853
(dp854
g7
S'cea.demand.thermal_loads.BuildingProperties.__getitem__'
p855
sg9
g772
sg11
g773
sg13
g31
sbg1
(g2
g3
Ntp856
Rp857
(dp858
g7
S'cea.demand.thermal_loads.BuildingProperties.get_prop_age'
p859
sg9
S'C:\\Users\\darthoma\\Documents\\GitHub\\CityEnergyAnalyst\\cea\\demand\\thermal_loads.py'
p860
sg11
S'get_prop_age'
p861
sg13
g31
sbtp862
a(g1
(g2
g3
Ntp863
Rp864
(dp865
g7
S'cea.demand.thermal_loads.BuildingProperties.__getitem__'
p866
sg9
g772
sg11
g773
sg13
g31
sbg1
(g2
g3
Ntp867
Rp868
(dp869
g7
S'cea.demand.thermal_loads.BuildingProperties.get_solar'
p870
sg9
S'C:\\Users\\darthoma\\Documents\\GitHub\\CityEnergyAnalyst\\cea\\demand\\thermal_loads.py'
p871
sg11
S'get_solar'
p872
sg13
g31
sbtp873
a(g1
(g2
g3
Ntp874
Rp875
(dp876
g7
S'cea.demand.thermal_loads.BuildingProperties.__getitem__'
p877
sg9
g772
sg11
g773
sg13
g31
sbg1
(g2
g3
Ntp878
Rp879
(dp880
g7
S'cea.demand.thermal_loads.BuildingProperties.get_prop_windows'
p881
sg9
S'C:\\Users\\darthoma\\Documents\\GitHub\\CityEnergyAnalyst\\cea\\demand\\thermal_loads.py'
p882
sg11
S'get_prop_windows'
p883
sg13
g31
sbtp884
a(g1
(g2
g3
Ntp885
Rp886
(dp887
g7
S'cea.demand.thermal_loads.BuildingProperties.__getitem__'
p888
sg9
g772
sg11
g773
sg13
g31
sbg1
(g2
g3
Ntp889
Rp890
(dp891
g7
S'cea.demand.thermal_loads.BuildingPropertiesRow.__init__'
p892
sg9
S'C:\\Users\\darthoma\\Documents\\GitHub\\CityEnergyAnalyst\\cea\\demand\\thermal_loads.py'
p893
sg11
g317
sg13
g31
sbtp894
a(g1
(g2
g3
Ntp895
Rp896
(dp897
g7
S'cea.demand.thermal_loads.BuildingPropertiesRow.__init__'
p898
sg9
g893
sg11
g317
sg13
g31
sbg1
(g2
g3
Ntp899
Rp900
(dp901
g7
S'cea.demand.thermal_loads.ArchitectureProperties.__init__'
p902
sg9
S'C:\\Users\\darthoma\\Documents\\GitHub\\CityEnergyAnalyst\\cea\\demand\\thermal_loads.py'
p903
sg11
g317
sg13
g31
sbtp904
a(g1
(g2
g3
Ntp905
Rp906
(dp907
g7
S'cea.demand.thermal_loads.BuildingPropertiesRow.__init__'
p908
sg9
g893
sg11
g317
sg13
g31
sbg1
(g2
g3
Ntp909
Rp910
(dp911
g7
S'cea.demand.thermal_loads.SolarProperties.__init__'
p912
sg9
S'C:\\Users\\darthoma\\Documents\\GitHub\\CityEnergyAnalyst\\cea\\demand\\thermal_loads.py'
p913
sg11
g317
sg13
g31
sbtp914
a(g1
(g2
g3
Ntp915
Rp916
(dp917
g7
S'cea.demand.thermal_loads.BuildingPropertiesRow.__init__'
p918
sg9
g893
sg11
g317
sg13
g31
sbg1
(g2
g3
Ntp919
Rp920
(dp921
g7
S'cea.demand.thermal_loads.BuildingPropertiesRow._get_properties_building_systems'
p922
sg9
S'C:\\Users\\darthoma\\Documents\\GitHub\\CityEnergyAnalyst\\cea\\demand\\thermal_loads.py'
p923
sg11
S'_get_properties_building_systems'
p924
sg13
g31
sbtp925
a(g1
(g2
g3
Ntp926
Rp927
(dp928
g7
S'cea.demand.thermal_loads.BuildingPropertiesRow._get_properties_building_systems'
p929
sg9
g923
sg11
g924
sg13
g31
sbg1
(g2
g3
Ntp930
Rp931
(dp932
g7
S'cea.demand.thermal_loads.BuildingPropertiesRow._calculate_pipe_transmittance_values'
p933
sg9
S'C:\\Users\\darthoma\\Documents\\GitHub\\CityEnergyAnalyst\\cea\\demand\\thermal_loads.py'
p934
sg11
S'_calculate_pipe_transmittance_values'
p935
sg13
g31
sbtp936
a(g1
(g2
g3
Ntp937
Rp938
(dp939
g7
S'cea.demand.thermal_loads.BuildingPropertiesRow._get_properties_building_systems'
p940
sg9
g923
sg11
g924
sg13
g31
sbg1
(g2
g3
Ntp941
Rp942
(dp943
g7
S'cea.demand.thermal_loads.BuildingPropertiesRow._calc_form'
p944
sg9
S'C:\\Users\\darthoma\\Documents\\GitHub\\CityEnergyAnalyst\\cea\\demand\\thermal_loads.py'
p945
sg11
S'_calc_form'
p946
sg13
g31
sbtp947
a(g1
(g2
g3
Ntp948
Rp949
(dp950
g7
S'cea.demand.demand_main.thermal_loads_all_buildings'
p951
sg9
g761
sg11
g762
sg13
g14
sbg1
(g2
g3
Ntp952
Rp953
(dp954
g7
S'cea.demand.thermal_loads.calc_thermal_loads'
p955
sg9
S'C:\\Users\\darthoma\\Documents\\GitHub\\CityEnergyAnalyst\\cea\\demand\\thermal_loads.py'
p956
sg11
S'calc_thermal_loads'
p957
sg13
g31
sbtp958
a(g1
(g2
g3
Ntp959
Rp960
(dp961
g7
S'cea.demand.thermal_loads.calc_thermal_loads'
p962
sg9
g956
sg11
g957
sg13
g31
sbg1
(g2
g3
Ntp963
Rp964
(dp965
g7
S'cea.demand.thermal_loads.initialize_timestep_data'
p966
sg9
S'C:\\Users\\darthoma\\Documents\\GitHub\\CityEnergyAnalyst\\cea\\demand\\thermal_loads.py'
p967
sg11
S'initialize_timestep_data'
p968
sg13
g31
sbtp969
a(g1
(g2
g3
Ntp970
Rp971
(dp972
g7
S'cea.demand.thermal_loads.initialize_timestep_data'
p973
sg9
g967
sg11
g968
sg13
g31
sbg1
(g2
g3
Ntp974
Rp975
(dp976
g7
S'cea.demand.thermal_loads.<genexpr>'
p977
sg9
S'C:\\Users\\darthoma\\Documents\\GitHub\\CityEnergyAnalyst\\cea\\demand\\thermal_loads.py'
p978
sg11
S'<genexpr>'
p979
sg13
g31
sbtp980
a(g1
(g2
g3
Ntp981
Rp982
(dp983
g7
S'cea.demand.thermal_loads.calc_thermal_loads'
p984
sg9
g956
sg11
g957
sg13
g31
sbg1
(g2
g3
Ntp985
Rp986
(dp987
g7
S'cea.demand.occupancy_model.calc_occ'
p988
sg9
S'C:\\Users\\darthoma\\Documents\\GitHub\\CityEnergyAnalyst\\cea\\demand\\occupancy_model.py'
p989
sg11
S'calc_occ'
p990
sg13
g20
sbtp991
a(g1
(g2
g3
Ntp992
Rp993
(dp994
g7
S'cea.demand.occupancy_model.calc_occ'
p995
sg9
g989
sg11
g990
sg13
g20
sbg1
(g2
g3
Ntp996
Rp997
(dp998
g7
S'cea.demand.occupancy_model.calc_occ_schedule'
p999
sg9
S'C:\\Users\\darthoma\\Documents\\GitHub\\CityEnergyAnalyst\\cea\\demand\\occupancy_model.py'
p1000
sg11
S'calc_occ_schedule'
p1001
sg13
g20
sbtp1002
a(g1
(g2
g3
Ntp1003
Rp1004
(dp1005
g7
S'cea.demand.occupancy_model.calc_occ_schedule'
p1006
sg9
g1000
sg11
g1001
sg13
g20
sbg1
(g2
g3
Ntp1007
Rp1008
(dp1009
g7
S'cea.demand.occupancy_model.calc_average'
p1010
sg9
S'C:\\Users\\darthoma\\Documents\\GitHub\\CityEnergyAnalyst\\cea\\demand\\occupancy_model.py'
p1011
sg11
S'calc_average'
p1012
sg13
g20
sbtp1013
a(g1
(g2
g3
Ntp1014
Rp1015
(dp1016
g7
S'cea.demand.thermal_loads.calc_thermal_loads'
p1017
sg9
g956
sg11
g957
sg13
g31
sbg1
(g2
g3
Ntp1018
Rp1019
(dp1020
g7
S'cea.demand.electrical_loads.calc_Eint'
p1021
sg9
S'C:\\Users\\darthoma\\Documents\\GitHub\\CityEnergyAnalyst\\cea\\demand\\electrical_loads.py'
p1022
sg11
S'calc_Eint'
p1023
sg13
g185
sbtp1024
a(g1
(g2
g3
Ntp1025
Rp1026
(dp1027
g7
S'cea.demand.electrical_loads.calc_Eint'
p1028
sg9
g1022
sg11
g1023
sg13
g185
sbg1
(g2
g3
Ntp1029
Rp1030
(dp1031
g7
S'cea.demand.electrical_loads.average_appliances_lighting_schedule'
p1032
sg9
S'C:\\Users\\darthoma\\Documents\\GitHub\\CityEnergyAnalyst\\cea\\demand\\electrical_loads.py'
p1033
sg11
S'average_appliances_lighting_schedule'
p1034
sg13
g185
sbtp1035
a(g1
(g2
g3
Ntp1036
Rp1037
(dp1038
g7
S'cea.demand.electrical_loads.average_appliances_lighting_schedule'
p1039
sg9
g1033
sg11
g1034
sg13
g185
sbg1
(g2
g3
Ntp1040
Rp1041
(dp1042
g7
S'cea.demand.electrical_loads.calc_average'
p1043
sg9
S'C:\\Users\\darthoma\\Documents\\GitHub\\CityEnergyAnalyst\\cea\\demand\\electrical_loads.py'
p1044
sg11
g1012
sg13
g185
sbtp1045
a(g1
(g2
g3
Ntp1046
Rp1047
(dp1048
g7
S'cea.demand.thermal_loads.calc_thermal_loads'
p1049
sg9
g956
sg11
g957
sg13
g31
sbg1
(g2
g3
Ntp1050
Rp1051
(dp1052
g7
S'cea.demand.refrigeration_loads.calc_Qcref'
p1053
sg9
S'C:\\Users\\darthoma\\Documents\\GitHub\\CityEnergyAnalyst\\cea\\demand\\refrigeration_loads.py'
p1054
sg11
S'calc_Qcref'
p1055
sg13
g229
sbtp1056
a(g1
(g2
g3
Ntp1057
Rp1058
(dp1059
g7
S'cea.demand.thermal_loads.calc_thermal_loads'
p1060
sg9
g956
sg11
g957
sg13
g31
sbg1
(g2
g3
Ntp1061
Rp1062
(dp1063
g7
S'cea.demand.datacenter_loads.calc_Qcdataf'
p1064
sg9
S'C:\\Users\\darthoma\\Documents\\GitHub\\CityEnergyAnalyst\\cea\\demand\\datacenter_loads.py'
p1065
sg11
S'calc_Qcdataf'
p1066
sg13
g240
sbtp1067
a(g1
(g2
g3
Ntp1068
Rp1069
(dp1070
g7
S'cea.demand.thermal_loads.calc_thermal_loads'
p1071
sg9
g956
sg11
g957
sg13
g31
sbg1
(g2
g3
Ntp1072
Rp1073
(dp1074
g7
S'cea.demand.ventilation_air_flows_simple.calc_m_ve_required'
p1075
sg9
S'C:\\Users\\darthoma\\Documents\\GitHub\\CityEnergyAnalyst\\cea\\demand\\ventilation_air_flows_simple.py'
p1076
sg11
S'calc_m_ve_required'
p1077
sg13
g152
sbtp1078
a(g1
(g2
g3
Ntp1079
Rp1080
(dp1081
g7
S'cea.demand.ventilation_air_flows_simple.calc_m_ve_required'
p1082
sg9
g1076
sg11
g1077
sg13
g152
sbg1
(g2
g3
Ntp1083
Rp1084
(dp1085
g7
S'cea.utilities.physics.calc_rho_air'
p1086
sg9
S'C:\\Users\\darthoma\\Documents\\GitHub\\CityEnergyAnalyst\\cea\\utilities\\physics.py'
p1087
sg11
S'calc_rho_air'
p1088
sg13
g75
sbtp1089
a(g1
(g2
g3
Ntp1090
Rp1091
(dp1092
g7
S'cea.demand.thermal_loads.calc_thermal_loads'
p1093
sg9
g956
sg11
g957
sg13
g31
sbg1
(g2
g3
Ntp1094
Rp1095
(dp1096
g7
S'cea.demand.ventilation_air_flows_simple.calc_m_ve_leakage_simple'
p1097
sg9
S'C:\\Users\\darthoma\\Documents\\GitHub\\CityEnergyAnalyst\\cea\\demand\\ventilation_air_flows_simple.py'
p1098
sg11
S'calc_m_ve_leakage_simple'
p1099
sg13
g152
sbtp1100
a(g1
(g2
g3
Ntp1101
Rp1102
(dp1103
g7
S'cea.demand.ventilation_air_flows_simple.calc_m_ve_leakage_simple'
p1104
sg9
g1098
sg11
g1099
sg13
g152
sbg1
(g2
g3
Ntp1105
Rp1106
(dp1107
g7
S'cea.utilities.physics.calc_rho_air'
p1108
sg9
g1087
sg11
g1088
sg13
g75
sbtp1109
a(g1
(g2
g3
Ntp1110
Rp1111
(dp1112
g7
S'cea.demand.thermal_loads.calc_thermal_loads'
p1113
sg9
g956
sg11
g957
sg13
g31
sbg1
(g2
g3
Ntp1114
Rp1115
(dp1116
g7
S'cea.technologies.controllers.calc_simple_temp_control'
p1117
sg9
S'C:\\Users\\darthoma\\Documents\\GitHub\\CityEnergyAnalyst\\cea\\technologies\\controllers.py'
p1118
sg11
S'calc_simple_temp_control'
p1119
sg13
g251
sbtp1120
a(g1
(g2
g3
Ntp1121
Rp1122
(dp1123
g7
S'cea.technologies.controllers.calc_simple_temp_control'
p1124
sg9
g1118
sg11
g1119
sg13
g251
sbg1
(g2
g3
Ntp1125
Rp1126
(dp1127
g7
S'cea.technologies.controllers.get_hsetpoint'
p1128
sg9
S'C:\\Users\\darthoma\\Documents\\GitHub\\CityEnergyAnalyst\\cea\\technologies\\controllers.py'
p1129
sg11
S'get_hsetpoint'
p1130
sg13
g251
sbtp1131
a(g1
(g2
g3
Ntp1132
Rp1133
(dp1134
g7
S'cea.technologies.controllers.calc_simple_temp_control'
p1135
sg9
g1118
sg11
g1119
sg13
g251
sbg1
(g2
g3
Ntp1136
Rp1137
(dp1138
g7
S'cea.technologies.controllers.get_csetpoint'
p1139
sg9
S'C:\\Users\\darthoma\\Documents\\GitHub\\CityEnergyAnalyst\\cea\\technologies\\controllers.py'
p1140
sg11
S'get_csetpoint'
p1141
sg13
g251
sbtp1142
a(g1
(g2
g3
Ntp1143
Rp1144
(dp1145
g7
S'cea.demand.thermal_loads.calc_thermal_loads'
p1146
sg9
g956
sg11
g957
sg13
g31
sbg1
(g2
g3
Ntp1147
Rp1148
(dp1149
g7
S'cea.demand.sensible_loads.calc_Qgain_lat'
p1150
sg9
S'C:\\Users\\darthoma\\Documents\\GitHub\\CityEnergyAnalyst\\cea\\demand\\sensible_loads.py'
p1151
sg11
S'calc_Qgain_lat'
p1152
sg13
g174
sbtp1153
a(g1
(g2
g3
Ntp1154
Rp1155
(dp1156
g7
S'cea.demand.thermal_loads.calc_thermal_loads'
p1157
sg9
g956
sg11
g957
sg13
g31
sbg1
(g2
g3
Ntp1158
Rp1159
(dp1160
g7
S'cea.utilities.helpers.seasonhour_2_hoy'
p1161
sg9
S'C:\\Users\\darthoma\\Documents\\GitHub\\CityEnergyAnalyst\\cea\\utilities\\helpers.py'
p1162
sg11
S'seasonhour_2_hoy'
p1163
sg13
g130
sbtp1164
a(g1
(g2
g3
Ntp1165
Rp1166
(dp1167
g7
S'cea.utilities.helpers.seasonhour_2_hoy'
p1168
sg9
g1162
sg11
g1163
sg13
g130
sbg1
(g2
g3
Ntp1169
Rp1170
(dp1171
g7
S'cea.utilities.helpers.check_hoy'
p1172
sg9
S'C:\\Users\\darthoma\\Documents\\GitHub\\CityEnergyAnalyst\\cea\\utilities\\helpers.py'
p1173
sg11
S'check_hoy'
p1174
sg13
g130
sbtp1175
a(g1
(g2
g3
Ntp1176
Rp1177
(dp1178
g7
S'cea.demand.thermal_loads.calc_thermal_loads'
p1179
sg9
g956
sg11
g957
sg13
g31
sbg1
(g2
g3
Ntp1180
Rp1181
(dp1182
g7
S'cea.demand.sensible_loads.calc_Qgain_sen'
p1183
sg9
S'C:\\Users\\darthoma\\Documents\\GitHub\\CityEnergyAnalyst\\cea\\demand\\sensible_loads.py'
p1184
sg11
S'calc_Qgain_sen'
p1185
sg13
g174
sbtp1186
a(g1
(g2
g3
Ntp1187
Rp1188
(dp1189
g7
S'cea.demand.sensible_loads.calc_Qgain_sen'
p1190
sg9
g1184
sg11
g1185
sg13
g174
sbg1
(g2
g3
Ntp1191
Rp1192
(dp1193
g7
S'cea.demand.sensible_loads.calc_I_sol'
p1194
sg9
S'C:\\Users\\darthoma\\Documents\\GitHub\\CityEnergyAnalyst\\cea\\demand\\sensible_loads.py'
p1195
sg11
S'calc_I_sol'
p1196
sg13
g174
sbtp1197
a(g1
(g2
g3
Ntp1198
Rp1199
(dp1200
g7
S'cea.demand.sensible_loads.calc_I_sol'
p1201
sg9
g1195
sg11
g1196
sg13
g174
sbg1
(g2
g3
Ntp1202
Rp1203
(dp1204
g7
S'cea.demand.sensible_loads.calc_Asol'
p1205
sg9
S'C:\\Users\\darthoma\\Documents\\GitHub\\CityEnergyAnalyst\\cea\\demand\\sensible_loads.py'
p1206
sg11
S'calc_Asol'
p1207
sg13
g174
sbtp1208
a(g1
(g2
g3
Ntp1209
Rp1210
(dp1211
g7
S'cea.demand.sensible_loads.calc_Asol'
p1212
sg9
g1206
sg11
g1207
sg13
g174
sbg1
(g2
g3
Ntp1213
Rp1214
(dp1215
g7
S'cea.technologies.blinds.<module>'
p1216
sg9
S'C:\\Users\\darthoma\\Documents\\GitHub\\CityEnergyAnalyst\\cea\\technologies\\blinds.py'
p1217
sg11
g12
sg13
S'cea.technologies.blinds'
p1218
sbtp1219
a(g1
(g2
g3
Ntp1220
Rp1221
(dp1222
g7
S'cea.demand.sensible_loads.calc_Asol'
p1223
sg9
g1206
sg11
g1207
sg13
g174
sbg1
(g2
g3
Ntp1224
Rp1225
(dp1226
g7
S'cea.technologies.blinds.calc_blinds_activation'
p1227
sg9
S'C:\\Users\\darthoma\\Documents\\GitHub\\CityEnergyAnalyst\\cea\\technologies\\blinds.py'
p1228
sg11
S'calc_blinds_activation'
p1229
sg13
g1218
sbtp1230
a(g1
(g2
g3
Ntp1231
Rp1232
(dp1233
g7
S'cea.demand.sensible_loads.calc_I_sol'
p1234
sg9
g1195
sg11
g1196
sg13
g174
sbg1
(g2
g3
Ntp1235
Rp1236
(dp1237
g7
S'cea.demand.sensible_loads.calc_I_rad'
p1238
sg9
S'C:\\Users\\darthoma\\Documents\\GitHub\\CityEnergyAnalyst\\cea\\demand\\sensible_loads.py'
p1239
sg11
S'calc_I_rad'
p1240
sg13
g174
sbtp1241
a(g1
(g2
g3
Ntp1242
Rp1243
(dp1244
g7
S'cea.demand.sensible_loads.calc_I_rad'
p1245
sg9
g1239
sg11
g1240
sg13
g174
sbg1
(g2
g3
Ntp1246
Rp1247
(dp1248
g7
S'cea.demand.sensible_loads.calc_hr'
p1249
sg9
S'C:\\Users\\darthoma\\Documents\\GitHub\\CityEnergyAnalyst\\cea\\demand\\sensible_loads.py'
p1250
sg11
S'calc_hr'
p1251
sg13
g174
sbtp1252
a(g1
(g2
g3
Ntp1253
Rp1254
(dp1255
g7
S'cea.demand.thermal_loads.calc_thermal_loads'
p1256
sg9
g956
sg11
g957
sg13
g31
sbg1
(g2
g3
Ntp1257
Rp1258
(dp1259
g7
S'cea.demand.ventilation_air_flows_simple.calc_air_mass_flow_mechanical_ventilation'
p1260
sg9
S'C:\\Users\\darthoma\\Documents\\GitHub\\CityEnergyAnalyst\\cea\\demand\\ventilation_air_flows_simple.py'
p1261
sg11
S'calc_air_mass_flow_mechanical_ventilation'
p1262
sg13
g152
sbtp1263
a(g1
(g2
g3
Ntp1264
Rp1265
(dp1266
g7
S'cea.demand.ventilation_air_flows_simple.calc_air_mass_flow_mechanical_ventilation'
p1267
sg9
g1261
sg11
g1262
sg13
g152
sbg1
(g2
g3
Ntp1268
Rp1269
(dp1270
g7
S'cea.demand.control_ventilation_systems.is_mechanical_ventilation_active'
p1271
sg9
S'C:\\Users\\darthoma\\Documents\\GitHub\\CityEnergyAnalyst\\cea\\demand\\control_ventilation_systems.py'
p1272
sg11
S'is_mechanical_ventilation_active'
p1273
sg13
g163
sbtp1274
a(g1
(g2
g3
Ntp1275
Rp1276
(dp1277
g7
S'cea.demand.control_ventilation_systems.is_mechanical_ventilation_active'
p1278
sg9
g1272
sg11
g1273
sg13
g163
sbg1
(g2
g3
Ntp1279
Rp1280
(dp1281
g7
S'cea.demand.control_ventilation_systems.has_mechanical_ventilation'
p1282
sg9
S'C:\\Users\\darthoma\\Documents\\GitHub\\CityEnergyAnalyst\\cea\\demand\\control_ventilation_systems.py'
p1283
sg11
S'has_mechanical_ventilation'
p1284
sg13
g163
sbtp1285
a(g1
(g2
g3
Ntp1286
Rp1287
(dp1288
g7
S'cea.demand.control_ventilation_systems.is_mechanical_ventilation_active'
p1289
sg9
g1272
sg11
g1273
sg13
g163
sbg1
(g2
g3
Ntp1290
Rp1291
(dp1292
g7
S'cea.demand.control_ventilation_systems.is_night_flushing_active'
p1293
sg9
S'C:\\Users\\darthoma\\Documents\\GitHub\\CityEnergyAnalyst\\cea\\demand\\control_ventilation_systems.py'
p1294
sg11
S'is_night_flushing_active'
p1295
sg13
g163
sbtp1296
a(g1
(g2
g3
Ntp1297
Rp1298
(dp1299
g7
S'cea.demand.control_ventilation_systems.is_night_flushing_active'
p1300
sg9
g1294
sg11
g1295
sg13
g163
sbg1
(g2
g3
Ntp1301
Rp1302
(dp1303
g7
S'cea.demand.control_ventilation_systems.has_night_flushing'
p1304
sg9
S'C:\\Users\\darthoma\\Documents\\GitHub\\CityEnergyAnalyst\\cea\\demand\\control_ventilation_systems.py'
p1305
sg11
S'has_night_flushing'
p1306
sg13
g163
sbtp1307
a(g1
(g2
g3
Ntp1308
Rp1309
(dp1310
g7
S'cea.demand.control_ventilation_systems.is_night_flushing_active'
p1311
sg9
g1294
sg11
g1295
sg13
g163
sbg1
(g2
g3
Ntp1312
Rp1313
(dp1314
g7
S'cea.utilities.helpers.is_coolingseason_hoy'
p1315
sg9
S'C:\\Users\\darthoma\\Documents\\GitHub\\CityEnergyAnalyst\\cea\\utilities\\helpers.py'
p1316
sg11
S'is_coolingseason_hoy'
p1317
sg13
g130
sbtp1318
a(g1
(g2
g3
Ntp1319
Rp1320
(dp1321
g7
S'cea.utilities.helpers.is_coolingseason_hoy'
p1322
sg9
g1316
sg11
g1317
sg13
g130
sbg1
(g2
g3
Ntp1323
Rp1324
(dp1325
g7
S'cea.utilities.helpers.check_hoy'
p1326
sg9
g1173
sg11
g1174
sg13
g130
sbtp1327
a(g1
(g2
g3
Ntp1328
Rp1329
(dp1330
g7
S'cea.utilities.helpers.is_coolingseason_hoy'
p1331
sg9
g1316
sg11
g1317
sg13
g130
sbg1
(g2
g3
Ntp1332
Rp1333
(dp1334
g7
S'cea.utilities.helpers.is_heatingseason_hoy'
p1335
sg9
S'C:\\Users\\darthoma\\Documents\\GitHub\\CityEnergyAnalyst\\cea\\utilities\\helpers.py'
p1336
sg11
S'is_heatingseason_hoy'
p1337
sg13
g130
sbtp1338
a(g1
(g2
g3
Ntp1339
Rp1340
(dp1341
g7
S'cea.utilities.helpers.is_heatingseason_hoy'
p1342
sg9
g1336
sg11
g1337
sg13
g130
sbg1
(g2
g3
Ntp1343
Rp1344
(dp1345
g7
S'cea.utilities.helpers.check_hoy'
p1346
sg9
g1173
sg11
g1174
sg13
g130
sbtp1347
a(g1
(g2
g3
Ntp1348
Rp1349
(dp1350
g7
S'cea.demand.control_ventilation_systems.is_night_flushing_active'
p1351
sg9
g1294
sg11
g1295
sg13
g163
sbg1
(g2
g3
Ntp1352
Rp1353
(dp1354
g7
S'cea.utilities.helpers.is_nighttime_hoy'
p1355
sg9
S'C:\\Users\\darthoma\\Documents\\GitHub\\CityEnergyAnalyst\\cea\\utilities\\helpers.py'
p1356
sg11
S'is_nighttime_hoy'
p1357
sg13
g130
sbtp1358
a(g1
(g2
g3
Ntp1359
Rp1360
(dp1361
g7
S'cea.utilities.helpers.is_nighttime_hoy'
p1362
sg9
g1356
sg11
g1357
sg13
g130
sbg1
(g2
g3
Ntp1363
Rp1364
(dp1365
g7
S'cea.utilities.helpers.check_hoy'
p1366
sg9
g1173
sg11
g1174
sg13
g130
sbtp1367
a(g1
(g2
g3
Ntp1368
Rp1369
(dp1370
g7
S'cea.utilities.helpers.is_nighttime_hoy'
p1371
sg9
g1356
sg11
g1357
sg13
g130
sbg1
(g2
g3
Ntp1372
Rp1373
(dp1374
g7
S'cea.utilities.helpers.hoy_2_hod'
p1375
sg9
S'C:\\Users\\darthoma\\Documents\\GitHub\\CityEnergyAnalyst\\cea\\utilities\\helpers.py'
p1376
sg11
S'hoy_2_hod'
p1377
sg13
g130
sbtp1378
a(g1
(g2
g3
Ntp1379
Rp1380
(dp1381
g7
S'cea.utilities.helpers.hoy_2_hod'
p1382
sg9
g1376
sg11
g1377
sg13
g130
sbg1
(g2
g3
Ntp1383
Rp1384
(dp1385
g7
S'cea.utilities.helpers.check_hoy'
p1386
sg9
g1173
sg11
g1174
sg13
g130
sbtp1387
a(g1
(g2
g3
Ntp1388
Rp1389
(dp1390
g7
S'cea.demand.ventilation_air_flows_simple.calc_air_mass_flow_mechanical_ventilation'
p1391
sg9
g1261
sg11
g1262
sg13
g152
sbg1
(g2
g3
Ntp1392
Rp1393
(dp1394
g7
S'cea.demand.control_ventilation_systems.has_mechanical_ventilation'
p1395
sg9
g1283
sg11
g1284
sg13
g163
sbtp1396
a(g1
(g2
g3
Ntp1397
Rp1398
(dp1399
g7
S'cea.demand.ventilation_air_flows_simple.calc_air_mass_flow_mechanical_ventilation'
p1400
sg9
g1261
sg11
g1262
sg13
g152
sbg1
(g2
g3
Ntp1401
Rp1402
(dp1403
g7
S'cea.demand.control_ventilation_systems.is_night_flushing_active'
p1404
sg9
g1294
sg11
g1295
sg13
g163
sbtp1405
a(g1
(g2
g3
Ntp1406
Rp1407
(dp1408
g7
S'cea.demand.thermal_loads.calc_thermal_loads'
p1409
sg9
g956
sg11
g957
sg13
g31
sbg1
(g2
g3
Ntp1410
Rp1411
(dp1412
g7
S'cea.demand.ventilation_air_flows_simple.calc_air_mass_flow_window_ventilation'
p1413
sg9
S'C:\\Users\\darthoma\\Documents\\GitHub\\CityEnergyAnalyst\\cea\\demand\\ventilation_air_flows_simple.py'
p1414
sg11
S'calc_air_mass_flow_window_ventilation'
p1415
sg13
g152
sbtp1416
a(g1
(g2
g3
Ntp1417
Rp1418
(dp1419
g7
S'cea.demand.ventilation_air_flows_simple.calc_air_mass_flow_window_ventilation'
p1420
sg9
g1414
sg11
g1415
sg13
g152
sbg1
(g2
g3
Ntp1421
Rp1422
(dp1423
g7
S'cea.demand.control_ventilation_systems.is_window_ventilation_active'
p1424
sg9
S'C:\\Users\\darthoma\\Documents\\GitHub\\CityEnergyAnalyst\\cea\\demand\\control_ventilation_systems.py'
p1425
sg11
S'is_window_ventilation_active'
p1426
sg13
g163
sbtp1427
a(g1
(g2
g3
Ntp1428
Rp1429
(dp1430
g7
S'cea.demand.control_ventilation_systems.is_window_ventilation_active'
p1431
sg9
g1425
sg11
g1426
sg13
g163
sbg1
(g2
g3
Ntp1432
Rp1433
(dp1434
g7
S'cea.demand.control_ventilation_systems.has_window_ventilation'
p1435
sg9
S'C:\\Users\\darthoma\\Documents\\GitHub\\CityEnergyAnalyst\\cea\\demand\\control_ventilation_systems.py'
p1436
sg11
S'has_window_ventilation'
p1437
sg13
g163
sbtp1438
a(g1
(g2
g3
Ntp1439
Rp1440
(dp1441
g7
S'cea.demand.thermal_loads.calc_thermal_loads'
p1442
sg9
g956
sg11
g957
sg13
g31
sbg1
(g2
g3
Ntp1443
Rp1444
(dp1445
g7
S'cea.demand.ventilation_air_flows_simple.calc_theta_ve_mech'
p1446
sg9
S'C:\\Users\\darthoma\\Documents\\GitHub\\CityEnergyAnalyst\\cea\\demand\\ventilation_air_flows_simple.py'
p1447
sg11
S'calc_theta_ve_mech'
p1448
sg13
g152
sbtp1449
a(g1
(g2
g3
Ntp1450
Rp1451
(dp1452
g7
S'cea.demand.ventilation_air_flows_simple.calc_theta_ve_mech'
p1453
sg9
g1447
sg11
g1448
sg13
g152
sbg1
(g2
g3
Ntp1454
Rp1455
(dp1456
g7
S'cea.demand.control_ventilation_systems.is_mechanical_ventilation_heat_recovery_active'
p1457
sg9
S'C:\\Users\\darthoma\\Documents\\GitHub\\CityEnergyAnalyst\\cea\\demand\\control_ventilation_systems.py'
p1458
sg11
S'is_mechanical_ventilation_heat_recovery_active'
p1459
sg13
g163
sbtp1460
a(g1
(g2
g3
Ntp1461
Rp1462
(dp1463
g7
S'cea.demand.control_ventilation_systems.is_mechanical_ventilation_heat_recovery_active'
p1464
sg9
g1458
sg11
g1459
sg13
g163
sbg1
(g2
g3
Ntp1465
Rp1466
(dp1467
g7
S'cea.demand.control_ventilation_systems.is_mechanical_ventilation_active'
p1468
sg9
g1272
sg11
g1273
sg13
g163
sbtp1469
a(g1
(g2
g3
Ntp1470
Rp1471
(dp1472
g7
S'cea.demand.thermal_loads.calc_thermal_loads'
p1473
sg9
g956
sg11
g957
sg13
g31
sbg1
(g2
g3
Ntp1474
Rp1475
(dp1476
g7
S'cea.demand.rc_model_crank_nicholson_procedure.calc_rc_model_demand_heating_cooling'
p1477
sg9
S'C:\\Users\\darthoma\\Documents\\GitHub\\CityEnergyAnalyst\\cea\\demand\\rc_model_crank_nicholson_procedure.py'
p1478
sg11
S'calc_rc_model_demand_heating_cooling'
p1479
sg13
g42
sbtp1480
a(g1
(g2
g3
Ntp1481
Rp1482
(dp1483
g7
S'cea.demand.rc_model_crank_nicholson_procedure.calc_rc_model_demand_heating_cooling'
p1484
sg9
g1478
sg11
g1479
sg13
g42
sbg1
(g2
g3
Ntp1485
Rp1486
(dp1487
g7
S'cea.demand.control_heating_cooling_systems.is_active_heating_system'
p1488
sg9
S'C:\\Users\\darthoma\\Documents\\GitHub\\CityEnergyAnalyst\\cea\\demand\\control_heating_cooling_systems.py'
p1489
sg11
S'is_active_heating_system'
p1490
sg13
g119
sbtp1491
a(g1
(g2
g3
Ntp1492
Rp1493
(dp1494
g7
S'cea.demand.control_heating_cooling_systems.is_active_heating_system'
p1495
sg9
g1489
sg11
g1490
sg13
g119
sbg1
(g2
g3
Ntp1496
Rp1497
(dp1498
g7
S'cea.utilities.helpers.is_heatingseason_hoy'
p1499
sg9
g1336
sg11
g1337
sg13
g130
sbtp1500
a(g1
(g2
g3
Ntp1501
Rp1502
(dp1503
g7
S'cea.demand.rc_model_crank_nicholson_procedure.calc_rc_model_demand_heating_cooling'
p1504
sg9
g1478
sg11
g1479
sg13
g42
sbg1
(g2
g3
Ntp1505
Rp1506
(dp1507
g7
S'cea.demand.control_heating_cooling_systems.is_active_cooling_system'
p1508
sg9
S'C:\\Users\\darthoma\\Documents\\GitHub\\CityEnergyAnalyst\\cea\\demand\\control_heating_cooling_systems.py'
p1509
sg11
S'is_active_cooling_system'
p1510
sg13
g119
sbtp1511
a(g1
(g2
g3
Ntp1512
Rp1513
(dp1514
g7
S'cea.demand.control_heating_cooling_systems.is_active_cooling_system'
p1515
sg9
g1509
sg11
g1510
sg13
g119
sbg1
(g2
g3
Ntp1516
Rp1517
(dp1518
g7
S'cea.utilities.helpers.is_coolingseason_hoy'
p1519
sg9
g1316
sg11
g1317
sg13
g130
sbtp1520
a(g1
(g2
g3
Ntp1521
Rp1522
(dp1523
g7
S'cea.demand.control_heating_cooling_systems.is_active_cooling_system'
p1524
sg9
g1509
sg11
g1510
sg13
g119
sbg1
(g2
g3
Ntp1525
Rp1526
(dp1527
g7
S'cea.demand.control_heating_cooling_systems.has_cooling_system'
p1528
sg9
S'C:\\Users\\darthoma\\Documents\\GitHub\\CityEnergyAnalyst\\cea\\demand\\control_heating_cooling_systems.py'
p1529
sg11
S'has_cooling_system'
p1530
sg13
g119
sbtp1531
a(g1
(g2
g3
Ntp1532
Rp1533
(dp1534
g7
S'cea.demand.rc_model_crank_nicholson_procedure.calc_rc_model_demand_heating_cooling'
p1535
sg9
g1478
sg11
g1479
sg13
g42
sbg1
(g2
g3
Ntp1536
Rp1537
(dp1538
g7
S'cea.demand.rc_model_SIA.calc_rc_model_temperatures_no_heating_cooling'
p1539
sg9
S'C:\\Users\\darthoma\\Documents\\GitHub\\CityEnergyAnalyst\\cea\\demand\\rc_model_SIA.py'
p1540
sg11
S'calc_rc_model_temperatures_no_heating_cooling'
p1541
sg13
g86
sbtp1542
a(g1
(g2
g3
Ntp1543
Rp1544
(dp1545
g7
S'cea.demand.rc_model_SIA.calc_rc_model_temperatures_no_heating_cooling'
p1546
sg9
g1540
sg11
g1541
sg13
g86
sbg1
(g2
g3
Ntp1547
Rp1548
(dp1549
g7
S'cea.demand.rc_model_SIA.calc_rc_model_temperatures'
p1550
sg9
S'C:\\Users\\darthoma\\Documents\\GitHub\\CityEnergyAnalyst\\cea\\demand\\rc_model_SIA.py'
p1551
sg11
S'calc_rc_model_temperatures'
p1552
sg13
g86
sbtp1553
a(g1
(g2
g3
Ntp1554
Rp1555
(dp1556
g7
S'cea.demand.rc_model_SIA.calc_rc_model_temperatures'
p1557
sg9
g1551
sg11
g1552
sg13
g86
sbg1
(g2
g3
Ntp1558
Rp1559
(dp1560
g7
S'cea.demand.time_step_data_t.TimeStepDataT.__init__'
p1561
sg9
S'C:\\Users\\darthoma\\Documents\\GitHub\\CityEnergyAnalyst\\cea\\demand\\time_step_data_t.py'
p1562
sg11
g317
sg13
g97
sbtp1563
a(g1
(g2
g3
Ntp1564
Rp1565
(dp1566
g7
S'cea.demand.time_step_data_t.TimeStepDataT.__init__'
p1567
sg9
g1562
sg11
g317
sg13
g97
sbg1
(g2
g3
Ntp1568
Rp1569
(dp1570
g7
S'cea.demand.rc_model_SIA.calc_h_ec'
p1571
sg9
S'C:\\Users\\darthoma\\Documents\\GitHub\\CityEnergyAnalyst\\cea\\demand\\rc_model_SIA.py'
p1572
sg11
S'calc_h_ec'
p1573
sg13
g86
sbtp1574
a(g1
(g2
g3
Ntp1575
Rp1576
(dp1577
g7
S'cea.demand.time_step_data_t.TimeStepDataT.__init__'
p1578
sg9
g1562
sg11
g317
sg13
g97
sbg1
(g2
g3
Ntp1579
Rp1580
(dp1581
g7
S'cea.demand.rc_model_SIA.calc_h_ac'
p1582
sg9
S'C:\\Users\\darthoma\\Documents\\GitHub\\CityEnergyAnalyst\\cea\\demand\\rc_model_SIA.py'
p1583
sg11
S'calc_h_ac'
p1584
sg13
g86
sbtp1585
a(g1
(g2
g3
Ntp1586
Rp1587
(dp1588
g7
S'cea.demand.time_step_data_t.TimeStepDataT.__init__'
p1589
sg9
g1562
sg11
g317
sg13
g97
sbg1
(g2
g3
Ntp1590
Rp1591
(dp1592
g7
S'cea.demand.rc_model_SIA.calc_h_ea'
p1593
sg9
S'C:\\Users\\darthoma\\Documents\\GitHub\\CityEnergyAnalyst\\cea\\demand\\rc_model_SIA.py'
p1594
sg11
S'calc_h_ea'
p1595
sg13
g86
sbtp1596
a(g1
(g2
g3
Ntp1597
Rp1598
(dp1599
g7
S'cea.demand.time_step_data_t.TimeStepDataT.__init__'
p1600
sg9
g1562
sg11
g317
sg13
g97
sbg1
(g2
g3
Ntp1601
Rp1602
(dp1603
g7
S'cea.demand.rc_model_SIA.calc_f_sc'
p1604
sg9
S'C:\\Users\\darthoma\\Documents\\GitHub\\CityEnergyAnalyst\\cea\\demand\\rc_model_SIA.py'
p1605
sg11
S'calc_f_sc'
p1606
sg13
g86
sbtp1607
a(g1
(g2
g3
Ntp1608
Rp1609
(dp1610
g7
S'cea.demand.time_step_data_t.TimeStepDataT.__init__'
p1611
sg9
g1562
sg11
g317
sg13
g97
sbg1
(g2
g3
Ntp1612
Rp1613
(dp1614
g7
S'cea.demand.rc_model_SIA.calc_f_ic'
p1615
sg9
S'C:\\Users\\darthoma\\Documents\\GitHub\\CityEnergyAnalyst\\cea\\demand\\rc_model_SIA.py'
p1616
sg11
S'calc_f_ic'
p1617
sg13
g86
sbtp1618
a(g1
(g2
g3
Ntp1619
Rp1620
(dp1621
g7
S'cea.demand.time_step_data_t.TimeStepDataT.__init__'
p1622
sg9
g1562
sg11
g317
sg13
g97
sbg1
(g2
g3
Ntp1623
Rp1624
(dp1625
g7
S'cea.demand.rc_model_SIA.calc_h_op_m'
p1626
sg9
S'C:\\Users\\darthoma\\Documents\\GitHub\\CityEnergyAnalyst\\cea\\demand\\rc_model_SIA.py'
p1627
sg11
S'calc_h_op_m'
p1628
sg13
g86
sbtp1629
a(g1
(g2
g3
Ntp1630
Rp1631
(dp1632
g7
S'cea.demand.time_step_data_t.TimeStepDataT.__init__'
p1633
sg9
g1562
sg11
g317
sg13
g97
sbg1
(g2
g3
Ntp1634
Rp1635
(dp1636
g7
S'cea.demand.rc_model_SIA.calc_h_mc'
p1637
sg9
S'C:\\Users\\darthoma\\Documents\\GitHub\\CityEnergyAnalyst\\cea\\demand\\rc_model_SIA.py'
p1638
sg11
S'calc_h_mc'
p1639
sg13
g86
sbtp1640
a(g1
(g2
g3
Ntp1641
Rp1642
(dp1643
g7
S'cea.demand.time_step_data_t.TimeStepDataT.__init__'
p1644
sg9
g1562
sg11
g317
sg13
g97
sbg1
(g2
g3
Ntp1645
Rp1646
(dp1647
g7
S'cea.demand.rc_model_SIA.calc_h_em'
p1648
sg9
S'C:\\Users\\darthoma\\Documents\\GitHub\\CityEnergyAnalyst\\cea\\demand\\rc_model_SIA.py'
p1649
sg11
S'calc_h_em'
p1650
sg13
g86
sbtp1651
a(g1
(g2
g3
Ntp1652
Rp1653
(dp1654
g7
S'cea.demand.time_step_data_t.TimeStepDataT.__init__'
p1655
sg9
g1562
sg11
g317
sg13
g97
sbg1
(g2
g3
Ntp1656
Rp1657
(dp1658
g7
S'cea.demand.rc_model_SIA.calc_f_im'
p1659
sg9
S'C:\\Users\\darthoma\\Documents\\GitHub\\CityEnergyAnalyst\\cea\\demand\\rc_model_SIA.py'
p1660
sg11
S'calc_f_im'
p1661
sg13
g86
sbtp1662
a(g1
(g2
g3
Ntp1663
Rp1664
(dp1665
g7
S'cea.demand.time_step_data_t.TimeStepDataT.__init__'
p1666
sg9
g1562
sg11
g317
sg13
g97
sbg1
(g2
g3
Ntp1667
Rp1668
(dp1669
g7
S'cea.demand.rc_model_SIA.calc_f_sm'
p1670
sg9
S'C:\\Users\\darthoma\\Documents\\GitHub\\CityEnergyAnalyst\\cea\\demand\\rc_model_SIA.py'
p1671
sg11
S'calc_f_sm'
p1672
sg13
g86
sbtp1673
a(g1
(g2
g3
Ntp1674
Rp1675
(dp1676
g7
S'cea.demand.time_step_data_t.TimeStepDataT.__init__'
p1677
sg9
g1562
sg11
g317
sg13
g97
sbg1
(g2
g3
Ntp1678
Rp1679
(dp1680
g7
S'cea.demand.rc_model_SIA.calc_phi_i_l'
p1681
sg9
S'C:\\Users\\darthoma\\Documents\\GitHub\\CityEnergyAnalyst\\cea\\demand\\rc_model_SIA.py'
p1682
sg11
S'calc_phi_i_l'
p1683
sg13
g86
sbtp1684
a(g1
(g2
g3
Ntp1685
Rp1686
(dp1687
g7
S'cea.demand.time_step_data_t.TimeStepDataT.__init__'
p1688
sg9
g1562
sg11
g317
sg13
g97
sbg1
(g2
g3
Ntp1689
Rp1690
(dp1691
g7
S'cea.demand.rc_model_SIA.calc_phi_i_a'
p1692
sg9
S'C:\\Users\\darthoma\\Documents\\GitHub\\CityEnergyAnalyst\\cea\\demand\\rc_model_SIA.py'
p1693
sg11
S'calc_phi_i_a'
p1694
sg13
g86
sbtp1695
a(g1
(g2
g3
Ntp1696
Rp1697
(dp1698
g7
S'cea.demand.time_step_data_t.TimeStepDataT.__init__'
p1699
sg9
g1562
sg11
g317
sg13
g97
sbg1
(g2
g3
Ntp1700
Rp1701
(dp1702
g7
S'cea.demand.rc_model_SIA.calc_phi_i_p'
p1703
sg9
S'C:\\Users\\darthoma\\Documents\\GitHub\\CityEnergyAnalyst\\cea\\demand\\rc_model_SIA.py'
p1704
sg11
S'calc_phi_i_p'
p1705
sg13
g86
sbtp1706
a(g1
(g2
g3
Ntp1707
Rp1708
(dp1709
g7
S'cea.demand.rc_model_SIA.calc_rc_model_temperatures'
p1710
sg9
g1551
sg11
g1552
sg13
g86
sbg1
(g2
g3
Ntp1711
Rp1712
(dp1713
g7
S'cea.demand.rc_model_SIA.calc_h_1'
p1714
sg9
S'C:\\Users\\darthoma\\Documents\\GitHub\\CityEnergyAnalyst\\cea\\demand\\rc_model_SIA.py'
p1715
sg11
S'calc_h_1'
p1716
sg13
g86
sbtp1717
a(g1
(g2
g3
Ntp1718
Rp1719
(dp1720
g7
S'cea.demand.rc_model_SIA.calc_rc_model_temperatures'
p1721
sg9
g1551
sg11
g1552
sg13
g86
sbg1
(g2
g3
Ntp1722
Rp1723
(dp1724
g7
S'cea.demand.rc_model_SIA.calc_theta_m'
p1725
sg9
S'C:\\Users\\darthoma\\Documents\\GitHub\\CityEnergyAnalyst\\cea\\demand\\rc_model_SIA.py'
p1726
sg11
S'calc_theta_m'
p1727
sg13
g86
sbtp1728
a(g1
(g2
g3
Ntp1729
Rp1730
(dp1731
g7
S'cea.demand.rc_model_SIA.calc_theta_m'
p1732
sg9
g1726
sg11
g1727
sg13
g86
sbg1
(g2
g3
Ntp1733
Rp1734
(dp1735
g7
S'cea.demand.rc_model_SIA.calc_theta_m_t'
p1736
sg9
S'C:\\Users\\darthoma\\Documents\\GitHub\\CityEnergyAnalyst\\cea\\demand\\rc_model_SIA.py'
p1737
sg11
S'calc_theta_m_t'
p1738
sg13
g86
sbtp1739
a(g1
(g2
g3
Ntp1740
Rp1741
(dp1742
g7
S'cea.demand.rc_model_SIA.calc_theta_m_t'
p1743
sg9
g1737
sg11
g1738
sg13
g86
sbg1
(g2
g3
Ntp1744
Rp1745
(dp1746
g7
S'cea.demand.rc_model_SIA.calc_h_2'
p1747
sg9
S'C:\\Users\\darthoma\\Documents\\GitHub\\CityEnergyAnalyst\\cea\\demand\\rc_model_SIA.py'
p1748
sg11
S'calc_h_2'
p1749
sg13
g86
sbtp1750
a(g1
(g2
g3
Ntp1751
Rp1752
(dp1753
g7
S'cea.demand.rc_model_SIA.calc_theta_m_t'
p1754
sg9
g1737
sg11
g1738
sg13
g86
sbg1
(g2
g3
Ntp1755
Rp1756
(dp1757
g7
S'cea.demand.rc_model_SIA.calc_h_3'
p1758
sg9
S'C:\\Users\\darthoma\\Documents\\GitHub\\CityEnergyAnalyst\\cea\\demand\\rc_model_SIA.py'
p1759
sg11
S'calc_h_3'
p1760
sg13
g86
sbtp1761
a(g1
(g2
g3
Ntp1762
Rp1763
(dp1764
g7
S'cea.demand.rc_model_SIA.calc_theta_m_t'
p1765
sg9
g1737
sg11
g1738
sg13
g86
sbg1
(g2
g3
Ntp1766
Rp1767
(dp1768
g7
S'cea.demand.rc_model_SIA.calc_phi_m_tot'
p1769
sg9
S'C:\\Users\\darthoma\\Documents\\GitHub\\CityEnergyAnalyst\\cea\\demand\\rc_model_SIA.py'
p1770
sg11
S'calc_phi_m_tot'
p1771
sg13
g86
sbtp1772
a(g1
(g2
g3
Ntp1773
Rp1774
(dp1775
g7
S'cea.demand.rc_model_SIA.calc_phi_m_tot'
p1776
sg9
g1770
sg11
g1771
sg13
g86
sbg1
(g2
g3
Ntp1777
Rp1778
(dp1779
g7
S'cea.demand.rc_model_SIA.calc_theta_em'
p1780
sg9
S'C:\\Users\\darthoma\\Documents\\GitHub\\CityEnergyAnalyst\\cea\\demand\\rc_model_SIA.py'
p1781
sg11
S'calc_theta_em'
p1782
sg13
g86
sbtp1783
a(g1
(g2
g3
Ntp1784
Rp1785
(dp1786
g7
S'cea.demand.rc_model_SIA.calc_phi_m_tot'
p1787
sg9
g1770
sg11
g1771
sg13
g86
sbg1
(g2
g3
Ntp1788
Rp1789
(dp1790
g7
S'cea.demand.rc_model_SIA.calc_theta_ec'
p1791
sg9
S'C:\\Users\\darthoma\\Documents\\GitHub\\CityEnergyAnalyst\\cea\\demand\\rc_model_SIA.py'
p1792
sg11
S'calc_theta_ec'
p1793
sg13
g86
sbtp1794
a(g1
(g2
g3
Ntp1795
Rp1796
(dp1797
g7
S'cea.demand.rc_model_SIA.calc_phi_m_tot'
p1798
sg9
g1770
sg11
g1771
sg13
g86
sbg1
(g2
g3
Ntp1799
Rp1800
(dp1801
g7
S'cea.demand.rc_model_SIA.calc_theta_ea'
p1802
sg9
S'C:\\Users\\darthoma\\Documents\\GitHub\\CityEnergyAnalyst\\cea\\demand\\rc_model_SIA.py'
p1803
sg11
S'calc_theta_ea'
p1804
sg13
g86
sbtp1805
a(g1
(g2
g3
Ntp1806
Rp1807
(dp1808
g7
S'cea.demand.rc_model_SIA.calc_phi_m_tot'
p1809
sg9
g1770
sg11
g1771
sg13
g86
sbg1
(g2
g3
Ntp1810
Rp1811
(dp1812
g7
S'cea.demand.rc_model_SIA.calc_phi_a'
p1813
sg9
S'C:\\Users\\darthoma\\Documents\\GitHub\\CityEnergyAnalyst\\cea\\demand\\rc_model_SIA.py'
p1814
sg11
S'calc_phi_a'
p1815
sg13
g86
sbtp1816
a(g1
(g2
g3
Ntp1817
Rp1818
(dp1819
g7
S'cea.demand.rc_model_SIA.calc_phi_m_tot'
p1820
sg9
g1770
sg11
g1771
sg13
g86
sbg1
(g2
g3
Ntp1821
Rp1822
(dp1823
g7
S'cea.demand.rc_model_SIA.calc_phi_c'
p1824
sg9
S'C:\\Users\\darthoma\\Documents\\GitHub\\CityEnergyAnalyst\\cea\\demand\\rc_model_SIA.py'
p1825
sg11
S'calc_phi_c'
p1826
sg13
g86
sbtp1827
a(g1
(g2
g3
Ntp1828
Rp1829
(dp1830
g7
S'cea.demand.rc_model_SIA.calc_phi_m_tot'
p1831
sg9
g1770
sg11
g1771
sg13
g86
sbg1
(g2
g3
Ntp1832
Rp1833
(dp1834
g7
S'cea.demand.rc_model_SIA.calc_phi_m'
p1835
sg9
S'C:\\Users\\darthoma\\Documents\\GitHub\\CityEnergyAnalyst\\cea\\demand\\rc_model_SIA.py'
p1836
sg11
S'calc_phi_m'
p1837
sg13
g86
sbtp1838
a(g1
(g2
g3
Ntp1839
Rp1840
(dp1841
g7
S'cea.demand.rc_model_SIA.calc_rc_model_temperatures'
p1842
sg9
g1551
sg11
g1552
sg13
g86
sbg1
(g2
g3
Ntp1843
Rp1844
(dp1845
g7
S'cea.demand.rc_model_SIA.calc_theta_c'
p1846
sg9
S'C:\\Users\\darthoma\\Documents\\GitHub\\CityEnergyAnalyst\\cea\\demand\\rc_model_SIA.py'
p1847
sg11
S'calc_theta_c'
p1848
sg13
g86
sbtp1849
a(g1
(g2
g3
Ntp1850
Rp1851
(dp1852
g7
S'cea.demand.rc_model_SIA.calc_theta_c'
p1853
sg9
g1847
sg11
g1848
sg13
g86
sbg1
(g2
g3
Ntp1854
Rp1855
(dp1856
g7
S'cea.demand.rc_model_SIA.calc_phi_c'
p1857
sg9
g1825
sg11
g1826
sg13
g86
sbtp1858
a(g1
(g2
g3
Ntp1859
Rp1860
(dp1861
g7
S'cea.demand.rc_model_SIA.calc_theta_c'
p1862
sg9
g1847
sg11
g1848
sg13
g86
sbg1
(g2
g3
Ntp1863
Rp1864
(dp1865
g7
S'cea.demand.rc_model_SIA.calc_theta_ec'
p1866
sg9
g1792
sg11
g1793
sg13
g86
sbtp1867
a(g1
(g2
g3
Ntp1868
Rp1869
(dp1870
g7
S'cea.demand.rc_model_SIA.calc_theta_c'
p1871
sg9
g1847
sg11
g1848
sg13
g86
sbg1
(g2
g3
Ntp1872
Rp1873
(dp1874
g7
S'cea.demand.rc_model_SIA.calc_phi_a'
p1875
sg9
g1814
sg11
g1815
sg13
g86
sbtp1876
a(g1
(g2
g3
Ntp1877
Rp1878
(dp1879
g7
S'cea.demand.rc_model_SIA.calc_theta_c'
p1880
sg9
g1847
sg11
g1848
sg13
g86
sbg1
(g2
g3
Ntp1881
Rp1882
(dp1883
g7
S'cea.demand.rc_model_SIA.calc_theta_ea'
p1884
sg9
g1803
sg11
g1804
sg13
g86
sbtp1885
a(g1
(g2
g3
Ntp1886
Rp1887
(dp1888
g7
S'cea.demand.rc_model_SIA.calc_rc_model_temperatures'
p1889
sg9
g1551
sg11
g1552
sg13
g86
sbg1
(g2
g3
Ntp1890
Rp1891
(dp1892
g7
S'cea.demand.rc_model_SIA.calc_theta_a'
p1893
sg9
S'C:\\Users\\darthoma\\Documents\\GitHub\\CityEnergyAnalyst\\cea\\demand\\rc_model_SIA.py'
p1894
sg11
S'calc_theta_a'
p1895
sg13
g86
sbtp1896
a(g1
(g2
g3
Ntp1897
Rp1898
(dp1899
g7
S'cea.demand.rc_model_SIA.calc_theta_a'
p1900
sg9
g1894
sg11
g1895
sg13
g86
sbg1
(g2
g3
Ntp1901
Rp1902
(dp1903
g7
S'cea.demand.rc_model_SIA.calc_theta_ea'
p1904
sg9
g1803
sg11
g1804
sg13
g86
sbtp1905
a(g1
(g2
g3
Ntp1906
Rp1907
(dp1908
g7
S'cea.demand.rc_model_SIA.calc_theta_a'
p1909
sg9
g1894
sg11
g1895
sg13
g86
sbg1
(g2
g3
Ntp1910
Rp1911
(dp1912
g7
S'cea.demand.rc_model_SIA.calc_phi_a'
p1913
sg9
g1814
sg11
g1815
sg13
g86
sbtp1914
a(g1
(g2
g3
Ntp1915
Rp1916
(dp1917
g7
S'cea.demand.rc_model_SIA.calc_rc_model_temperatures'
p1918
sg9
g1551
sg11
g1552
sg13
g86
sbg1
(g2
g3
Ntp1919
Rp1920
(dp1921
g7
S'cea.demand.rc_model_SIA.calc_theta_o'
p1922
sg9
S'C:\\Users\\darthoma\\Documents\\GitHub\\CityEnergyAnalyst\\cea\\demand\\rc_model_SIA.py'
p1923
sg11
S'calc_theta_o'
p1924
sg13
g86
sbtp1925
a(g1
(g2
g3
Ntp1926
Rp1927
(dp1928
g7
S'cea.demand.rc_model_crank_nicholson_procedure.calc_rc_model_demand_heating_cooling'
p1929
sg9
g1478
sg11
g1479
sg13
g42
sbg1
(g2
g3
Ntp1930
Rp1931
(dp1932
g7
S'cea.demand.rc_model_crank_nicholson_procedure.update_tsd_no_cooling'
p1933
sg9
S'C:\\Users\\darthoma\\Documents\\GitHub\\CityEnergyAnalyst\\cea\\demand\\rc_model_crank_nicholson_procedure.py'
p1934
sg11
S'update_tsd_no_cooling'
p1935
sg13
g42
sbtp1936
a(g1
(g2
g3
Ntp1937
Rp1938
(dp1939
g7
S'cea.demand.rc_model_crank_nicholson_procedure.calc_rc_model_demand_heating_cooling'
p1940
sg9
g1478
sg11
g1479
sg13
g42
sbg1
(g2
g3
Ntp1941
Rp1942
(dp1943
g7
S'cea.demand.rc_model_crank_nicholson_procedure.update_tsd_no_heating'
p1944
sg9
S'C:\\Users\\darthoma\\Documents\\GitHub\\CityEnergyAnalyst\\cea\\demand\\rc_model_crank_nicholson_procedure.py'
p1945
sg11
S'update_tsd_no_heating'
p1946
sg13
g42
sbtp1947
a(g1
(g2
g3
Ntp1948
Rp1949
(dp1950
g7
S'cea.demand.control_ventilation_systems.is_mechanical_ventilation_heat_recovery_active'
p1951
sg9
g1458
sg11
g1459
sg13
g163
sbg1
(g2
g3
Ntp1952
Rp1953
(dp1954
g7
S'cea.demand.control_ventilation_systems.has_mechanical_ventilation_heat_recovery'
p1955
sg9
S'C:\\Users\\darthoma\\Documents\\GitHub\\CityEnergyAnalyst\\cea\\demand\\control_ventilation_systems.py'
p1956
sg11
S'has_mechanical_ventilation_heat_recovery'
p1957
sg13
g163
sbtp1958
a(g1
(g2
g3
Ntp1959
Rp1960
(dp1961
g7
S'cea.demand.control_heating_cooling_systems.is_active_cooling_system'
p1962
sg9
g1509
sg11
g1510
sg13
g119
sbg1
(g2
g3
Ntp1963
Rp1964
(dp1965
g7
S'cea.demand.rc_model_SIA.has_cooling_demand'
p1966
sg9
S'C:\\Users\\darthoma\\Documents\\GitHub\\CityEnergyAnalyst\\cea\\demand\\rc_model_SIA.py'
p1967
sg11
S'has_cooling_demand'
p1968
sg13
g86
sbtp1969
a(g1
(g2
g3
Ntp1970
Rp1971
(dp1972
g7
S'cea.demand.rc_model_SIA.has_cooling_demand'
p1973
sg9
g1967
sg11
g1968
sg13
g86
sbg1
(g2
g3
Ntp1974
Rp1975
(dp1976
g7
S'cea.demand.rc_model_SIA.calc_rc_model_temperatures_no_heating_cooling'
p1977
sg9
g1540
sg11
g1541
sg13
g86
sbtp1978
a(g1
(g2
g3
Ntp1979
Rp1980
(dp1981
g7
S'cea.demand.rc_model_crank_nicholson_procedure.calc_rc_model_demand_heating_cooling'
p1982
sg9
g1478
sg11
g1479
sg13
g42
sbg1
(g2
g3
Ntp1983
Rp1984
(dp1985
g7
S'cea.demand.rc_model_SIA.calc_rc_model_temperatures_cooling'
p1986
sg9
S'C:\\Users\\darthoma\\Documents\\GitHub\\CityEnergyAnalyst\\cea\\demand\\rc_model_SIA.py'
p1987
sg11
S'calc_rc_model_temperatures_cooling'
p1988
sg13
g86
sbtp1989
a(g1
(g2
g3
Ntp1990
Rp1991
(dp1992
g7
S'cea.demand.rc_model_SIA.calc_rc_model_temperatures_cooling'
p1993
sg9
g1987
sg11
g1988
sg13
g86
sbg1
(g2
g3
Ntp1994
Rp1995
(dp1996
g7
S'cea.demand.rc_model_SIA.lookup_f_hc_cv_cooling'
p1997
sg9
S'C:\\Users\\darthoma\\Documents\\GitHub\\CityEnergyAnalyst\\cea\\demand\\rc_model_SIA.py'
p1998
sg11
S'lookup_f_hc_cv_cooling'
p1999
sg13
g86
sbtp2000
a(g1
(g2
g3
Ntp2001
Rp2002
(dp2003
g7
S'cea.demand.rc_model_SIA.calc_rc_model_temperatures_cooling'
p2004
sg9
g1987
sg11
g1988
sg13
g86
sbg1
(g2
g3
Ntp2005
Rp2006
(dp2007
g7
S'cea.demand.rc_model_SIA.calc_phi_hc_cv'
p2008
sg9
S'C:\\Users\\darthoma\\Documents\\GitHub\\CityEnergyAnalyst\\cea\\demand\\rc_model_SIA.py'
p2009
sg11
S'calc_phi_hc_cv'
p2010
sg13
g86
sbtp2011
a(g1
(g2
g3
Ntp2012
Rp2013
(dp2014
g7
S'cea.demand.rc_model_SIA.calc_rc_model_temperatures_cooling'
p2015
sg9
g1987
sg11
g1988
sg13
g86
sbg1
(g2
g3
Ntp2016
Rp2017
(dp2018
g7
S'cea.demand.rc_model_SIA.calc_phi_hc_r'
p2019
sg9
S'C:\\Users\\darthoma\\Documents\\GitHub\\CityEnergyAnalyst\\cea\\demand\\rc_model_SIA.py'
p2020
sg11
S'calc_phi_hc_r'
p2021
sg13
g86
sbtp2022
a(g1
(g2
g3
Ntp2023
Rp2024
(dp2025
g7
S'cea.demand.rc_model_SIA.calc_rc_model_temperatures_cooling'
p2026
sg9
g1987
sg11
g1988
sg13
g86
sbg1
(g2
g3
Ntp2027
Rp2028
(dp2029
g7
S'cea.demand.rc_model_SIA.calc_rc_model_temperatures'
p2030
sg9
g1551
sg11
g1552
sg13
g86
sbtp2031
a(g1
(g2
g3
Ntp2032
Rp2033
(dp2034
g7
S'cea.demand.rc_model_crank_nicholson_procedure.calc_rc_model_demand_heating_cooling'
p2035
sg9
g1478
sg11
g1479
sg13
g42
sbg1
(g2
g3
Ntp2036
Rp2037
(dp2038
g7
S'cea.demand.rc_model_SIA.calc_rc_model_temperatures_heating'
p2039
sg9
S'C:\\Users\\darthoma\\Documents\\GitHub\\CityEnergyAnalyst\\cea\\demand\\rc_model_SIA.py'
p2040
sg11
S'calc_rc_model_temperatures_heating'
p2041
sg13
g86
sbtp2042
a(g1
(g2
g3
Ntp2043
Rp2044
(dp2045
g7
S'cea.demand.rc_model_SIA.calc_rc_model_temperatures_heating'
p2046
sg9
g2040
sg11
g2041
sg13
g86
sbg1
(g2
g3
Ntp2047
Rp2048
(dp2049
g7
S'cea.demand.rc_model_SIA.lookup_f_hc_cv_heating'
p2050
sg9
S'C:\\Users\\darthoma\\Documents\\GitHub\\CityEnergyAnalyst\\cea\\demand\\rc_model_SIA.py'
p2051
sg11
S'lookup_f_hc_cv_heating'
p2052
sg13
g86
sbtp2053
a(g1
(g2
g3
Ntp2054
Rp2055
(dp2056
g7
S'cea.demand.rc_model_SIA.calc_rc_model_temperatures_heating'
p2057
sg9
g2040
sg11
g2041
sg13
g86
sbg1
(g2
g3
Ntp2058
Rp2059
(dp2060
g7
S'cea.demand.rc_model_SIA.calc_phi_hc_cv'
p2061
sg9
g2009
sg11
g2010
sg13
g86
sbtp2062
a(g1
(g2
g3
Ntp2063
Rp2064
(dp2065
g7
S'cea.demand.rc_model_SIA.calc_rc_model_temperatures_heating'
p2066
sg9
g2040
sg11
g2041
sg13
g86
sbg1
(g2
g3
Ntp2067
Rp2068
(dp2069
g7
S'cea.demand.rc_model_SIA.calc_phi_hc_r'
p2070
sg9
g2020
sg11
g2021
sg13
g86
sbtp2071
a(g1
(g2
g3
Ntp2072
Rp2073
(dp2074
g7
S'cea.demand.rc_model_SIA.calc_rc_model_temperatures_heating'
p2075
sg9
g2040
sg11
g2041
sg13
g86
sbg1
(g2
g3
Ntp2076
Rp2077
(dp2078
g7
S'cea.demand.rc_model_SIA.calc_rc_model_temperatures'
p2079
sg9
g1551
sg11
g1552
sg13
g86
sbtp2080
a(g1
(g2
g3
Ntp2081
Rp2082
(dp2083
g7
S'cea.demand.rc_model_crank_nicholson_procedure.calc_rc_model_demand_heating_cooling'
p2084
sg9
g1478
sg11
g1479
sg13
g42
sbg1
(g2
g3
Ntp2085
Rp2086
(dp2087
g7
S'cea.demand.control_heating_cooling_systems.cooling_system_is_ac'
p2088
sg9
S'C:\\Users\\darthoma\\Documents\\GitHub\\CityEnergyAnalyst\\cea\\demand\\control_heating_cooling_systems.py'
p2089
sg11
S'cooling_system_is_ac'
p2090
sg13
g119
sbtp2091
a(g1
(g2
g3
Ntp2092
Rp2093
(dp2094
g7
S'cea.demand.rc_model_crank_nicholson_procedure.calc_rc_model_demand_heating_cooling'
p2095
sg9
g1478
sg11
g1479
sg13
g42
sbg1
(g2
g3
Ntp2096
Rp2097
(dp2098
g7
S'cea.demand.airconditioning_model.calc_hvac_cooling'
p2099
sg9
S'C:\\Users\\darthoma\\Documents\\GitHub\\CityEnergyAnalyst\\cea\\demand\\airconditioning_model.py'
p2100
sg11
S'calc_hvac_cooling'
p2101
sg13
g53
sbtp2102
a(g1
(g2
g3
Ntp2103
Rp2104
(dp2105
g7
S'cea.demand.airconditioning_model.calc_hvac_cooling'
p2106
sg9
g2100
sg11
g2101
sg13
g53
sbg1
(g2
g3
Ntp2107
Rp2108
(dp2109
g7
S'cea.utilities.physics.calc_w'
p2110
sg9
S'C:\\Users\\darthoma\\Documents\\GitHub\\CityEnergyAnalyst\\cea\\utilities\\physics.py'
p2111
sg11
S'calc_w'
p2112
sg13
g75
sbtp2113
a(g1
(g2
g3
Ntp2114
Rp2115
(dp2116
g7
S'cea.demand.airconditioning_model.calc_hvac_cooling'
p2117
sg9
g2100
sg11
g2101
sg13
g53
sbg1
(g2
g3
Ntp2118
Rp2119
(dp2120
g7
S'cea.demand.airconditioning_model.calc_w3_cooling_case'
p2121
sg9
S'C:\\Users\\darthoma\\Documents\\GitHub\\CityEnergyAnalyst\\cea\\demand\\airconditioning_model.py'
p2122
sg11
S'calc_w3_cooling_case'
p2123
sg13
g53
sbtp2124
a(g1
(g2
g3
Ntp2125
Rp2126
(dp2127
g7
S'cea.demand.airconditioning_model.calc_w3_cooling_case'
p2128
sg9
g2122
sg11
g2123
sg13
g53
sbg1
(g2
g3
Ntp2129
Rp2130
(dp2131
g7
S'cea.utilities.physics.calc_w'
p2132
sg9
g2111
sg11
g2112
sg13
g75
sbtp2133
a(g1
(g2
g3
Ntp2134
Rp2135
(dp2136
g7
S'cea.demand.airconditioning_model.calc_hvac_cooling'
p2137
sg9
g2100
sg11
g2101
sg13
g53
sbg1
(g2
g3
Ntp2138
Rp2139
(dp2140
g7
S'cea.utilities.physics.calc_h'
p2141
sg9
S'C:\\Users\\darthoma\\Documents\\GitHub\\CityEnergyAnalyst\\cea\\utilities\\physics.py'
p2142
sg11
S'calc_h'
p2143
sg13
g75
sbtp2144
a(g1
(g2
g3
Ntp2145
Rp2146
(dp2147
g7
S'cea.demand.rc_model_crank_nicholson_procedure.calc_rc_model_demand_heating_cooling'
p2148
sg9
g1478
sg11
g1479
sg13
g42
sbg1
(g2
g3
Ntp2149
Rp2150
(dp2151
g7
S'cea.demand.space_emission_systems.calc_q_em_ls_cooling'
p2152
sg9
S'C:\\Users\\darthoma\\Documents\\GitHub\\CityEnergyAnalyst\\cea\\demand\\space_emission_systems.py'
p2153
sg11
S'calc_q_em_ls_cooling'
p2154
sg13
g141
sbtp2155
a(g1
(g2
g3
Ntp2156
Rp2157
(dp2158
g7
S'cea.demand.space_emission_systems.calc_q_em_ls_cooling'
p2159
sg9
g2153
sg11
g2154
sg13
g141
sbg1
(g2
g3
Ntp2160
Rp2161
(dp2162
g7
S'cea.demand.space_emission_systems.calc_delta_theta_int_inc_cooling'
p2163
sg9
S'C:\\Users\\darthoma\\Documents\\GitHub\\CityEnergyAnalyst\\cea\\demand\\space_emission_systems.py'
p2164
sg11
S'calc_delta_theta_int_inc_cooling'
p2165
sg13
g141
sbtp2166
a(g1
(g2
g3
Ntp2167
Rp2168
(dp2169
g7
S'cea.demand.space_emission_systems.calc_q_em_ls_cooling'
p2170
sg9
g2153
sg11
g2154
sg13
g141
sbg1
(g2
g3
Ntp2171
Rp2172
(dp2173
g7
S'cea.demand.space_emission_systems.calc_theta_int_inc'
p2174
sg9
S'C:\\Users\\darthoma\\Documents\\GitHub\\CityEnergyAnalyst\\cea\\demand\\space_emission_systems.py'
p2175
sg11
S'calc_theta_int_inc'
p2176
sg13
g141
sbtp2177
a(g1
(g2
g3
Ntp2178
Rp2179
(dp2180
g7
S'cea.demand.space_emission_systems.calc_q_em_ls_cooling'
p2181
sg9
g2153
sg11
g2154
sg13
g141
sbg1
(g2
g3
Ntp2182
Rp2183
(dp2184
g7
S'cea.demand.space_emission_systems.calc_theta_e_comb_cooling'
p2185
sg9
S'C:\\Users\\darthoma\\Documents\\GitHub\\CityEnergyAnalyst\\cea\\demand\\space_emission_systems.py'
p2186
sg11
S'calc_theta_e_comb_cooling'
p2187
sg13
g141
sbtp2188
a(g1
(g2
g3
Ntp2189
Rp2190
(dp2191
g7
S'cea.demand.space_emission_systems.calc_theta_e_comb_cooling'
p2192
sg9
g2186
sg11
g2187
sg13
g141
sbg1
(g2
g3
Ntp2193
Rp2194
(dp2195
g7
S'cea.demand.space_emission_systems.get_delta_theta_e_sol'
p2196
sg9
S'C:\\Users\\darthoma\\Documents\\GitHub\\CityEnergyAnalyst\\cea\\demand\\space_emission_systems.py'
p2197
sg11
S'get_delta_theta_e_sol'
p2198
sg13
g141
sbtp2199
a(g1
(g2
g3
Ntp2200
Rp2201
(dp2202
g7
S'cea.demand.space_emission_systems.calc_q_em_ls_cooling'
p2203
sg9
g2153
sg11
g2154
sg13
g141
sbg1
(g2
g3
Ntp2204
Rp2205
(dp2206
g7
S'cea.demand.space_emission_systems.calc_q_em_ls'
p2207
sg9
S'C:\\Users\\darthoma\\Documents\\GitHub\\CityEnergyAnalyst\\cea\\demand\\space_emission_systems.py'
p2208
sg11
S'calc_q_em_ls'
p2209
sg13
g141
sbtp2210
a(g1
(g2
g3
Ntp2211
Rp2212
(dp2213
g7
S'cea.demand.control_heating_cooling_systems.is_active_heating_system'
p2214
sg9
g1489
sg11
g1490
sg13
g119
sbg1
(g2
g3
Ntp2215
Rp2216
(dp2217
g7
S'cea.demand.control_heating_cooling_systems.has_heating_system'
p2218
sg9
S'C:\\Users\\darthoma\\Documents\\GitHub\\CityEnergyAnalyst\\cea\\demand\\control_heating_cooling_systems.py'
p2219
sg11
S'has_heating_system'
p2220
sg13
g119
sbtp2221
a(g1
(g2
g3
Ntp2222
Rp2223
(dp2224
g7
S'cea.demand.control_heating_cooling_systems.is_active_heating_system'
p2225
sg9
g1489
sg11
g1490
sg13
g119
sbg1
(g2
g3
Ntp2226
Rp2227
(dp2228
g7
S'cea.demand.rc_model_SIA.has_heating_demand'
p2229
sg9
S'C:\\Users\\darthoma\\Documents\\GitHub\\CityEnergyAnalyst\\cea\\demand\\rc_model_SIA.py'
p2230
sg11
S'has_heating_demand'
p2231
sg13
g86
sbtp2232
a(g1
(g2
g3
Ntp2233
Rp2234
(dp2235
g7
S'cea.demand.rc_model_SIA.has_heating_demand'
p2236
sg9
g2230
sg11
g2231
sg13
g86
sbg1
(g2
g3
Ntp2237
Rp2238
(dp2239
g7
S'cea.demand.rc_model_SIA.calc_rc_model_temperatures_no_heating_cooling'
p2240
sg9
g1540
sg11
g1541
sg13
g86
sbtp2241
a(g1
(g2
g3
Ntp2242
Rp2243
(dp2244
g7
S'cea.demand.rc_model_crank_nicholson_procedure.calc_rc_model_demand_heating_cooling'
p2245
sg9
g1478
sg11
g1479
sg13
g42
sbg1
(g2
g3
Ntp2246
Rp2247
(dp2248
g7
S'cea.demand.control_heating_cooling_systems.heating_system_is_ac'
p2249
sg9
S'C:\\Users\\darthoma\\Documents\\GitHub\\CityEnergyAnalyst\\cea\\demand\\control_heating_cooling_systems.py'
p2250
sg11
S'heating_system_is_ac'
p2251
sg13
g119
sbtp2252
a(g1
(g2
g3
Ntp2253
Rp2254
(dp2255
g7
S'cea.demand.rc_model_crank_nicholson_procedure.calc_rc_model_demand_heating_cooling'
p2256
sg9
g1478
sg11
g1479
sg13
g42
sbg1
(g2
g3
Ntp2257
Rp2258
(dp2259
g7
S'cea.demand.space_emission_systems.calc_q_em_ls_heating'
p2260
sg9
S'C:\\Users\\darthoma\\Documents\\GitHub\\CityEnergyAnalyst\\cea\\demand\\space_emission_systems.py'
p2261
sg11
S'calc_q_em_ls_heating'
p2262
sg13
g141
sbtp2263
a(g1
(g2
g3
Ntp2264
Rp2265
(dp2266
g7
S'cea.demand.space_emission_systems.calc_q_em_ls_heating'
p2267
sg9
g2261
sg11
g2262
sg13
g141
sbg1
(g2
g3
Ntp2268
Rp2269
(dp2270
g7
S'cea.demand.space_emission_systems.calc_delta_theta_int_inc_heating'
p2271
sg9
S'C:\\Users\\darthoma\\Documents\\GitHub\\CityEnergyAnalyst\\cea\\demand\\space_emission_systems.py'
p2272
sg11
S'calc_delta_theta_int_inc_heating'
p2273
sg13
g141
sbtp2274
a(g1
(g2
g3
Ntp2275
Rp2276
(dp2277
g7
S'cea.demand.space_emission_systems.calc_q_em_ls_heating'
p2278
sg9
g2261
sg11
g2262
sg13
g141
sbg1
(g2
g3
Ntp2279
Rp2280
(dp2281
g7
S'cea.demand.space_emission_systems.calc_theta_int_inc'
p2282
sg9
g2175
sg11
g2176
sg13
g141
sbtp2283
a(g1
(g2
g3
Ntp2284
Rp2285
(dp2286
g7
S'cea.demand.space_emission_systems.calc_q_em_ls_heating'
p2287
sg9
g2261
sg11
g2262
sg13
g141
sbg1
(g2
g3
Ntp2288
Rp2289
(dp2290
g7
S'cea.demand.space_emission_systems.calc_theta_e_comb_heating'
p2291
sg9
S'C:\\Users\\darthoma\\Documents\\GitHub\\CityEnergyAnalyst\\cea\\demand\\space_emission_systems.py'
p2292
sg11
S'calc_theta_e_comb_heating'
p2293
sg13
g141
sbtp2294
a(g1
(g2
g3
Ntp2295
Rp2296
(dp2297
g7
S'cea.demand.space_emission_systems.calc_q_em_ls_heating'
p2298
sg9
g2261
sg11
g2262
sg13
g141
sbg1
(g2
g3
Ntp2299
Rp2300
(dp2301
g7
S'cea.demand.space_emission_systems.calc_q_em_ls'
p2302
sg9
g2208
sg11
g2209
sg13
g141
sbtp2303
a(g1
(g2
g3
Ntp2304
Rp2305
(dp2306
g7
S'cea.demand.thermal_loads.calc_thermal_loads'
p2307
sg9
g956
sg11
g957
sg13
g31
sbg1
(g2
g3
Ntp2308
Rp2309
(dp2310
g7
S'cea.demand.sensible_loads.calc_Qhs_Qcs_dis_ls'
p2311
sg9
S'C:\\Users\\darthoma\\Documents\\GitHub\\CityEnergyAnalyst\\cea\\demand\\sensible_loads.py'
p2312
sg11
S'calc_Qhs_Qcs_dis_ls'
p2313
sg13
g174
sbtp2314
a(g1
(g2
g3
Ntp2315
Rp2316
(dp2317
g7
S'cea.demand.thermal_loads.calc_thermal_loads'
p2318
sg9
g956
sg11
g957
sg13
g31
sbg1
(g2
g3
Ntp2319
Rp2320
(dp2321
g7
S'cea.demand.sensible_loads.calc_temperatures_emission_systems'
p2322
sg9
S'C:\\Users\\darthoma\\Documents\\GitHub\\CityEnergyAnalyst\\cea\\demand\\sensible_loads.py'
p2323
sg11
S'calc_temperatures_emission_systems'
p2324
sg13
g174
sbtp2325
a(g1
(g2
g3
Ntp2326
Rp2327
(dp2328
g7
S'cea.demand.sensible_loads.calc_temperatures_emission_systems'
p2329
sg9
g2323
sg11
g2324
sg13
g174
sbg1
(g2
g3
Ntp2330
Rp2331
(dp2332
g7
S'cea.technologies.radiators.<module>'
p2333
sg9
S'C:\\Users\\darthoma\\Documents\\GitHub\\CityEnergyAnalyst\\cea\\technologies\\radiators.py'
p2334
sg11
g12
sg13
S'cea.technologies.radiators'
p2335
sbtp2336
a(g1
(g2
g3
Ntp2337
Rp2338
(dp2339
g7
S'cea.demand.sensible_loads.calc_temperatures_emission_systems'
p2340
sg9
g2323
sg11
g2324
sg13
g174
sbg1
(g2
g3
Ntp2341
Rp2342
(dp2343
g7
S'cea.technologies.heating_coils.<module>'
p2344
sg9
S'C:\\Users\\darthoma\\Documents\\GitHub\\CityEnergyAnalyst\\cea\\technologies\\heating_coils.py'
p2345
sg11
g12
sg13
S'cea.technologies.heating_coils'
p2346
sbtp2347
a(g1
(g2
g3
Ntp2348
Rp2349
(dp2350
g7
S'cea.demand.sensible_loads.calc_temperatures_emission_systems'
p2351
sg9
g2323
sg11
g2324
sg13
g174
sbg1
(g2
g3
Ntp2352
Rp2353
(dp2354
g7
S'cea.technologies.tabs.<module>'
p2355
sg9
S'C:\\Users\\darthoma\\Documents\\GitHub\\CityEnergyAnalyst\\cea\\technologies\\tabs.py'
p2356
sg11
g12
sg13
S'cea.technologies.tabs'
p2357
sbtp2358
a(g1
(g2
g3
Ntp2359
Rp2360
(dp2361
g7
S'cea.demand.sensible_loads.calc_temperatures_emission_systems'
p2362
sg9
g2323
sg11
g2324
sg13
g174
sbg1
(g2
g3
Ntp2363
Rp2364
(dp2365
g7
S'cea.technologies.radiators.calc_radiator'
p2366
sg9
S'C:\\Users\\darthoma\\Documents\\GitHub\\CityEnergyAnalyst\\cea\\technologies\\radiators.py'
p2367
sg11
S'calc_radiator'
p2368
sg13
g2335
sbtp2369
a(g1
(g2
g3
Ntp2370
Rp2371
(dp2372
g7
S'cea.demand.sensible_loads.calc_temperatures_emission_systems'
p2373
sg9
g2323
sg11
g2324
sg13
g174
sbg1
(g2
g3
Ntp2374
Rp2375
(dp2376
g7
S'cea.technologies.heating_coils.calc_cooling_coil'
p2377
sg9
S'C:\\Users\\darthoma\\Documents\\GitHub\\CityEnergyAnalyst\\cea\\technologies\\heating_coils.py'
p2378
sg11
S'calc_cooling_coil'
p2379
sg13
g2346
sbtp2380
a(g1
(g2
g3
Ntp2381
Rp2382
(dp2383
g7
S'cea.technologies.heating_coils.calc_cooling_coil'
p2384
sg9
g2378
sg11
g2379
sg13
g2346
sbg1
(g2
g3
Ntp2385
Rp2386
(dp2387
g7
S'cea.technologies.heating_coils.fh'
p2388
sg9
S'C:\\Users\\darthoma\\Documents\\GitHub\\CityEnergyAnalyst\\cea\\technologies\\heating_coils.py'
p2389
sg11
S'fh'
p2390
sg13
g2346
sbtp2391
a(g1
(g2
g3
Ntp2392
Rp2393
(dp2394
g7
S'cea.demand.thermal_loads.calc_thermal_loads'
p2395
sg9
g956
sg11
g957
sg13
g31
sbg1
(g2
g3
Ntp2396
Rp2397
(dp2398
g7
S'cea.demand.hotwater_loads.calc_Qwwf'
p2399
sg9
S'C:\\Users\\darthoma\\Documents\\GitHub\\CityEnergyAnalyst\\cea\\demand\\hotwater_loads.py'
p2400
sg11
S'calc_Qwwf'
p2401
sg13
g196
sbtp2402
a(g1
(g2
g3
Ntp2403
Rp2404
(dp2405
g7
S'cea.demand.hotwater_loads.calc_Qwwf'
p2406
sg9
g2400
sg11
g2401
sg13
g196
sbg1
(g2
g3
Ntp2407
Rp2408
(dp2409
g7
S'cea.demand.hotwater_loads.calc_Qww_schedule'
p2410
sg9
S'C:\\Users\\darthoma\\Documents\\GitHub\\CityEnergyAnalyst\\cea\\demand\\hotwater_loads.py'
p2411
sg11
S'calc_Qww_schedule'
p2412
sg13
g196
sbtp2413
a(g1
(g2
g3
Ntp2414
Rp2415
(dp2416
g7
S'cea.demand.hotwater_loads.calc_Qww_schedule'
p2417
sg9
g2411
sg11
g2412
sg13
g196
sbg1
(g2
g3
Ntp2418
Rp2419
(dp2420
g7
S'cea.demand.hotwater_loads.calc_average'
p2421
sg9
S'C:\\Users\\darthoma\\Documents\\GitHub\\CityEnergyAnalyst\\cea\\demand\\hotwater_loads.py'
p2422
sg11
g1012
sg13
g196
sbtp2423
a(g1
(g2
g3
Ntp2424
Rp2425
(dp2426
g7
S'cea.demand.hotwater_loads.calc_Qwwf'
p2427
sg9
g2400
sg11
g2401
sg13
g196
sbg1
(g2
g3
Ntp2428
Rp2429
(dp2430
g7
S'cea.demand.hotwater_loads.calc_mww'
p2431
sg9
S'C:\\Users\\darthoma\\Documents\\GitHub\\CityEnergyAnalyst\\cea\\demand\\hotwater_loads.py'
p2432
sg11
S'calc_mww'
p2433
sg13
g196
sbtp2434
a(g1
(g2
g3
Ntp2435
Rp2436
(dp2437
g7
S'cea.demand.hotwater_loads.calc_Qwwf'
p2438
sg9
g2400
sg11
g2401
sg13
g196
sbg1
(g2
g3
Ntp2439
Rp2440
(dp2441
g7
S'cea.demand.hotwater_loads.calc_Qww'
p2442
sg9
S'C:\\Users\\darthoma\\Documents\\GitHub\\CityEnergyAnalyst\\cea\\demand\\hotwater_loads.py'
p2443
sg11
S'calc_Qww'
p2444
sg13
g196
sbtp2445
a(g1
(g2
g3
Ntp2446
Rp2447
(dp2448
g7
S'cea.demand.hotwater_loads.calc_Qwwf'
p2449
sg9
g2400
sg11
g2401
sg13
g196
sbg1
(g2
g3
Ntp2450
Rp2451
(dp2452
g7
S'cea.demand.hotwater_loads.calc_Qww_dis_ls_r'
p2453
sg9
S'C:\\Users\\darthoma\\Documents\\GitHub\\CityEnergyAnalyst\\cea\\demand\\hotwater_loads.py'
p2454
sg11
S'calc_Qww_dis_ls_r'
p2455
sg13
g196
sbtp2456
a(g1
(g2
g3
Ntp2457
Rp2458
(dp2459
g7
S'cea.demand.hotwater_loads.calc_Qww_dis_ls_r'
p2460
sg9
g2454
sg11
g2455
sg13
g196
sbg1
(g2
g3
Ntp2461
Rp2462
(dp2463
g7
S'cea.demand.hotwater_loads.calc_disls'
p2464
sg9
S'C:\\Users\\darthoma\\Documents\\GitHub\\CityEnergyAnalyst\\cea\\demand\\hotwater_loads.py'
p2465
sg11
S'calc_disls'
p2466
sg13
g196
sbtp2467
a(g1
(g2
g3
Ntp2468
Rp2469
(dp2470
g7
S'cea.demand.hotwater_loads.calc_Qwwf'
p2471
sg9
g2400
sg11
g2401
sg13
g196
sbg1
(g2
g3
Ntp2472
Rp2473
(dp2474
g7
S'cea.demand.hotwater_loads.calc_Qww_dis_ls_nr'
p2475
sg9
S'C:\\Users\\darthoma\\Documents\\GitHub\\CityEnergyAnalyst\\cea\\demand\\hotwater_loads.py'
p2476
sg11
S'calc_Qww_dis_ls_nr'
p2477
sg13
g196
sbtp2478
a(g1
(g2
g3
Ntp2479
Rp2480
(dp2481
g7
S'cea.demand.hotwater_loads.calc_Qww_dis_ls_nr'
p2482
sg9
g2476
sg11
g2477
sg13
g196
sbg1
(g2
g3
Ntp2483
Rp2484
(dp2485
g7
S'cea.demand.hotwater_loads.calc_disls'
p2486
sg9
g2465
sg11
g2466
sg13
g196
sbtp2487
a(g1
(g2
g3
Ntp2488
Rp2489
(dp2490
g7
S'cea.demand.hotwater_loads.calc_Qwwf'
p2491
sg9
g2400
sg11
g2401
sg13
g196
sbg1
(g2
g3
Ntp2492
Rp2493
(dp2494
g7
S'cea.demand.hotwater_loads.calc_Qww_st_ls'
p2495
sg9
S'C:\\Users\\darthoma\\Documents\\GitHub\\CityEnergyAnalyst\\cea\\demand\\hotwater_loads.py'
p2496
sg11
S'calc_Qww_st_ls'
p2497
sg13
g196
sbtp2498
a(g1
(g2
g3
Ntp2499
Rp2500
(dp2501
g7
S'cea.demand.hotwater_loads.calc_Qww_st_ls'
p2502
sg9
g2496
sg11
g2497
sg13
g196
sbg1
(g2
g3
Ntp2503
Rp2504
(dp2505
g7
S'cea.technologies.storagetank.calc_Qww_ls_st'
p2506
sg9
S'C:\\Users\\darthoma\\Documents\\GitHub\\CityEnergyAnalyst\\cea\\technologies\\storagetank.py'
p2507
sg11
S'calc_Qww_ls_st'
p2508
sg13
g218
sbtp2509
a(g1
(g2
g3
Ntp2510
Rp2511
(dp2512
g7
S'cea.demand.hotwater_loads.calc_Qww_st_ls'
p2513
sg9
g2496
sg11
g2497
sg13
g196
sbg1
(g2
g3
Ntp2514
Rp2515
(dp2516
g7
S'cea.technologies.storagetank.solve_ode_storage'
p2517
sg9
S'C:\\Users\\darthoma\\Documents\\GitHub\\CityEnergyAnalyst\\cea\\technologies\\storagetank.py'
p2518
sg11
S'solve_ode_storage'
p2519
sg13
g218
sbtp2520
a(g1
(g2
g3
Ntp2521
Rp2522
(dp2523
g7
S'cea.technologies.storagetank.solve_ode_storage'
p2524
sg9
g2518
sg11
g2519
sg13
g218
sbg1
(g2
g3
Ntp2525
Rp2526
(dp2527
g7
S'cea.technologies.storagetank.ode'
p2528
sg9
S'C:\\Users\\darthoma\\Documents\\GitHub\\CityEnergyAnalyst\\cea\\technologies\\storagetank.py'
p2529
sg11
S'ode'
p2530
sg13
g218
sbtp2531
a(g1
(g2
g3
Ntp2532
Rp2533
(dp2534
g7
S'cea.demand.thermal_loads.calc_thermal_loads'
p2535
sg9
g956
sg11
g957
sg13
g31
sbg1
(g2
g3
Ntp2536
Rp2537
(dp2538
g7
S'cea.demand.electrical_loads.calc_Eauxf'
p2539
sg9
S'C:\\Users\\darthoma\\Documents\\GitHub\\CityEnergyAnalyst\\cea\\demand\\electrical_loads.py'
p2540
sg11
S'calc_Eauxf'
p2541
sg13
g185
sbtp2542
a(g1
(g2
g3
Ntp2543
Rp2544
(dp2545
g7
S'cea.demand.electrical_loads.calc_Eauxf'
p2546
sg9
g2540
sg11
g2541
sg13
g185
sbg1
(g2
g3
Ntp2547
Rp2548
(dp2549
g7
S'cea.demand.electrical_loads.calc_Eauxf_ww'
p2550
sg9
S'C:\\Users\\darthoma\\Documents\\GitHub\\CityEnergyAnalyst\\cea\\demand\\electrical_loads.py'
p2551
sg11
S'calc_Eauxf_ww'
p2552
sg13
g185
sbtp2553
a(g1
(g2
g3
Ntp2554
Rp2555
(dp2556
g7
S'cea.demand.electrical_loads.calc_Eauxf'
p2557
sg9
g2540
sg11
g2541
sg13
g185
sbg1
(g2
g3
Ntp2558
Rp2559
(dp2560
g7
S'cea.demand.electrical_loads.calc_Eauxf_hs_dis'
p2561
sg9
S'C:\\Users\\darthoma\\Documents\\GitHub\\CityEnergyAnalyst\\cea\\demand\\electrical_loads.py'
p2562
sg11
S'calc_Eauxf_hs_dis'
p2563
sg13
g185
sbtp2564
a(g1
(g2
g3
Ntp2565
Rp2566
(dp2567
g7
S'cea.demand.electrical_loads.calc_Eauxf'
p2568
sg9
g2540
sg11
g2541
sg13
g185
sbg1
(g2
g3
Ntp2569
Rp2570
(dp2571
g7
S'cea.demand.electrical_loads.calc_Eauxf_cs_dis'
p2572
sg9
S'C:\\Users\\darthoma\\Documents\\GitHub\\CityEnergyAnalyst\\cea\\demand\\electrical_loads.py'
p2573
sg11
S'calc_Eauxf_cs_dis'
p2574
sg13
g185
sbtp2575
a(g1
(g2
g3
Ntp2576
Rp2577
(dp2578
g7
S'cea.demand.electrical_loads.calc_Eauxf'
p2579
sg9
g2540
sg11
g2541
sg13
g185
sbg1
(g2
g3
Ntp2580
Rp2581
(dp2582
g7
S'cea.demand.electrical_loads.calc_Eauxf_fw'
p2583
sg9
S'C:\\Users\\darthoma\\Documents\\GitHub\\CityEnergyAnalyst\\cea\\demand\\electrical_loads.py'
p2584
sg11
S'calc_Eauxf_fw'
p2585
sg13
g185
sbtp2586
a(g1
(g2
g3
Ntp2587
Rp2588
(dp2589
g7
S'cea.demand.electrical_loads.calc_Eauxf'
p2590
sg9
g2540
sg11
g2541
sg13
g185
sbg1
(g2
g3
Ntp2591
Rp2592
(dp2593
g7
S'cea.demand.electrical_loads.calc_Eauxf_ve'
p2594
sg9
S'C:\\Users\\darthoma\\Documents\\GitHub\\CityEnergyAnalyst\\cea\\demand\\electrical_loads.py'
p2595
sg11
S'calc_Eauxf_ve'
p2596
sg13
g185
sbtp2597
a(g1
(g2
g3
Ntp2598
Rp2599
(dp2600
g7
S'cea.demand.thermal_loads.calc_thermal_loads'
p2601
sg9
g956
sg11
g957
sg13
g31
sbg1
(g2
g3
Ntp2602
Rp2603
(dp2604
g7
S'cea.demand.demand_writers.HourlyDemandWriter.results_to_csv'
p2605
sg9
S'C:\\Users\\darthoma\\Documents\\GitHub\\CityEnergyAnalyst\\cea\\demand\\demand_writers.py'
p2606
sg11
S'results_to_csv'
p2607
sg13
g329
sbtp2608
a(g1
(g2
g3
Ntp2609
Rp2610
(dp2611
g7
S'cea.demand.demand_writers.HourlyDemandWriter.results_to_csv'
p2612
sg9
g2606
sg11
g2607
sg13
g329
sbg1
(g2
g3
Ntp2613
Rp2614
(dp2615
g7
S'cea.demand.demand_writers.<genexpr>'
p2616
sg9
S'C:\\Users\\darthoma\\Documents\\GitHub\\CityEnergyAnalyst\\cea\\demand\\demand_writers.py'
p2617
sg11
g979
sg13
g329
sbtp2618
a(g1
(g2
g3
Ntp2619
Rp2620
(dp2621
g7
S'cea.demand.demand_writers.HourlyDemandWriter.results_to_csv'
p2622
sg9
g2606
sg11
g2607
sg13
g329
sbg1
(g2
g3
Ntp2623
Rp2624
(dp2625
g7
S'cea.demand.demand_writers.HourlyDemandWriter.write_to_csv'
p2626
sg9
S'C:\\Users\\darthoma\\Documents\\GitHub\\CityEnergyAnalyst\\cea\\demand\\demand_writers.py'
p2627
sg11
S'write_to_csv'
p2628
sg13
g329
sbtp2629
a(g1
(g2
g3
Ntp2630
Rp2631
(dp2632
g7
S'cea.demand.demand_writers.HourlyDemandWriter.write_to_csv'
p2633
sg9
g2627
sg11
g2628
sg13
g329
sbg1
(g2
g3
Ntp2634
Rp2635
(dp2636
g7
S'cea.inputlocator.InputLocator.get_demand_results_file'
p2637
sg9
S'C:\\Users\\darthoma\\Documents\\GitHub\\CityEnergyAnalyst\\cea\\inputlocator.py'
p2638
sg11
S'get_demand_results_file'
p2639
sg13
g353
sbtp2640
a(g1
(g2
g3
Ntp2641
Rp2642
(dp2643
g7
S'cea.inputlocator.InputLocator.get_demand_results_file'
p2644
sg9
g2638
sg11
g2639
sg13
g353
sbg1
(g2
g3
Ntp2645
Rp2646
(dp2647
g7
S'cea.inputlocator.InputLocator.get_demand_results_folder'
p2648
sg9
S'C:\\Users\\darthoma\\Documents\\GitHub\\CityEnergyAnalyst\\cea\\inputlocator.py'
p2649
sg11
S'get_demand_results_folder'
p2650
sg13
g353
sbtp2651
a(g1
(g2
g3
Ntp2652
Rp2653
(dp2654
g7
S'cea.inputlocator.InputLocator.get_demand_results_folder'
p2655
sg9
g2649
sg11
g2650
sg13
g353
sbg1
(g2
g3
Ntp2656
Rp2657
(dp2658
g7
S'cea.inputlocator._ensure_folder'
p2659
sg9
g374
sg11
g375
sg13
g353
sbtp2660
a(g1
(g2
g3
Ntp2661
Rp2662
(dp2663
g7
S'cea.demand.demand_writers.HourlyDemandWriter.results_to_csv'
p2664
sg9
g2606
sg11
g2607
sg13
g329
sbg1
(g2
g3
Ntp2665
Rp2666
(dp2667
g7
S'cea.inputlocator.InputLocator.get_temporary_file'
p2668
sg9
S'C:\\Users\\darthoma\\Documents\\GitHub\\CityEnergyAnalyst\\cea\\inputlocator.py'
p2669
sg11
S'get_temporary_file'
p2670
sg13
g353
sbtp2671
a(g1
(g2
g3
Ntp2672
Rp2673
(dp2674
g7
S'cea.inputlocator.InputLocator.get_temporary_file'
p2675
sg9
g2669
sg11
g2670
sg13
g353
sbg1
(g2
g3
Ntp2676
Rp2677
(dp2678
g7
S'cea.inputlocator.InputLocator.get_temporary_folder'
p2679
sg9
S'C:\\Users\\darthoma\\Documents\\GitHub\\CityEnergyAnalyst\\cea\\inputlocator.py'
p2680
sg11
S'get_temporary_folder'
p2681
sg13
g353
sbtp2682
a(g1
(g2
g3
Ntp2683
Rp2684
(dp2685
g7
S'cea.demand.thermal_loads.calc_thermal_loads'
p2686
sg9
g956
sg11
g957
sg13
g31
sbg1
(g2
g3
Ntp2687
Rp2688
(dp2689
g7
S'cea.inputlocator.InputLocator.get_demand_results_folder'
p2690
sg9
g2649
sg11
g2650
sg13
g353
sbtp2691
a(g1
(g2
g3
Ntp2692
Rp2693
(dp2694
g7
S'cea.demand.thermal_loads.calc_thermal_loads'
p2695
sg9
g956
sg11
g957
sg13
g31
sbg1
(g2
g3
Ntp2696
Rp2697
(dp2698
g7
S'cea.globalvar.GlobalVariables.report'
p2699
sg9
S'C:\\Users\\darthoma\\Documents\\GitHub\\CityEnergyAnalyst\\cea\\globalvar.py'
p2700
sg11
S'report'
p2701
sg13
g318
sbtp2702
a(g1
(g2
g3
Ntp2703
Rp2704
(dp2705
g7
S'cea.demand.demand_main.thermal_loads_all_buildings'
p2706
sg9
g761
sg11
g762
sg13
g14
sbg1
(g2
g3
Ntp2707
Rp2708
(dp2709
g7
S'cea.globalvar.GlobalVariables.log'
p2710
sg9
g459
sg11
g460
sg13
g318
sbtp2711
a(g1
(g2
g3
Ntp2712
Rp2713
(dp2714
g7
S'cea.demand.thermal_loads.calc_thermal_loads'
p2715
sg9
g956
sg11
g957
sg13
g31
sbg1
(g2
g3
Ntp2716
Rp2717
(dp2718
g7
S'cea.demand.thermal_loads.update_timestep_data_no_conditioned_area'
p2719
sg9
S'C:\\Users\\darthoma\\Documents\\GitHub\\CityEnergyAnalyst\\cea\\demand\\thermal_loads.py'
p2720
sg11
S'update_timestep_data_no_conditioned_area'
p2721
sg13
g31
sbtp2722
a(g1
(g2
g3
Ntp2723
Rp2724
(dp2725
g7
S'cea.demand.thermal_loads.update_timestep_data_no_conditioned_area'
p2726
sg9
g2720
sg11
g2721
sg13
g31
sbg1
(g2
g3
Ntp2727
Rp2728
(dp2729
g7
S'cea.demand.thermal_loads.<genexpr>'
p2730
sg9
S'C:\\Users\\darthoma\\Documents\\GitHub\\CityEnergyAnalyst\\cea\\demand\\thermal_loads.py'
p2731
sg11
g979
sg13
g31
sbtp2732
a(g1
(g2
g3
Ntp2733
Rp2734
(dp2735
g7
S'cea.demand.demand_main.demand_calculation'
p2736
sg9
g345
sg11
g346
sg13
g14
sbg1
(g2
g3
Ntp2737
Rp2738
(dp2739
g7
S'cea.demand.demand_writers.HourlyDemandWriter.write_totals_csv'
p2740
sg9
S'C:\\Users\\darthoma\\Documents\\GitHub\\CityEnergyAnalyst\\cea\\demand\\demand_writers.py'
p2741
sg11
S'write_totals_csv'
p2742
sg13
g329
sbtp2743
a(g1
(g2
g3
Ntp2744
Rp2745
(dp2746
g7
S'cea.demand.demand_writers.HourlyDemandWriter.write_totals_csv'
p2747
sg9
g2741
sg11
g2742
sg13
g329
sbg1
(g2
g3
Ntp2748
Rp2749
(dp2750
g7
S'cea.demand.thermal_loads.BuildingProperties.list_building_names'
p2751
sg9
g750
sg11
g751
sg13
g31
sbtp2752
a(g1
(g2
g3
Ntp2753
Rp2754
(dp2755
g7
S'cea.demand.demand_writers.HourlyDemandWriter.write_totals_csv'
p2756
sg9
g2741
sg11
g2742
sg13
g329
sbg1
(g2
g3
Ntp2757
Rp2758
(dp2759
g7
S'cea.inputlocator.InputLocator.get_temporary_file'
p2760
sg9
g2669
sg11
g2670
sg13
g353
sbtp2761
a(g1
(g2
g3
Ntp2762
Rp2763
(dp2764
g7
S'cea.demand.demand_writers.HourlyDemandWriter.write_totals_csv'
p2765
sg9
g2741
sg11
g2742
sg13
g329
sbg1
(g2
g3
Ntp2766
Rp2767
(dp2768
g7
S'cea.inputlocator.InputLocator.get_total_demand'
p2769
sg9
S'C:\\Users\\darthoma\\Documents\\GitHub\\CityEnergyAnalyst\\cea\\inputlocator.py'
p2770
sg11
S'get_total_demand'
p2771
sg13
g353
sbtp2772
a(g1
(g2
g3
Ntp2773
Rp2774
(dp2775
g7
S'cea.inputlocator.InputLocator.get_total_demand'
p2776
sg9
g2770
sg11
g2771
sg13
g353
sbg1
(g2
g3
Ntp2777
Rp2778
(dp2779
g7
S'cea.inputlocator.InputLocator.get_demand_results_folder'
p2780
sg9
g2649
sg11
g2650
sg13
g353
sbtp2781
a(g1
(g2
g3
Ntp2782
Rp2783
(dp2784
g7
S'cea.demand.demand_writers.HourlyDemandWriter.write_totals_csv'
p2785
sg9
g2741
sg11
g2742
sg13
g329
sbg1
(g2
g3
Ntp2786
Rp2787
(dp2788
g7
S'cea.inputlocator.InputLocator.get_demand_results_file'
p2789
sg9
g2638
sg11
g2639
sg13
g353
sbtp2790
a(g1
(g2
g3
Ntp2791
Rp2792
(dp2793
g7
S'cea.demand.demand_main.demand_calculation'
p2794
sg9
g345
sg11
g346
sg13
g14
sbg1
(g2
g3
Ntp2795
Rp2796
(dp2797
g7
S'cea.globalvar.GlobalVariables.log'
p2798
sg9
g459
sg11
g460
sg13
g318
sbtp2799
a.