(lp0
(ccopy_reg
_reconstructor
p1
(c__main__
TraceDataInfo
p2
c__builtin__
object
p3
Ntp4
Rp5
(dp6
S'fqname'
p7
S'cea.demand.demand_main.<module>'
p8
sS'path'
p9
S'C:\\Users\\darthoma\\Documents\\GitHub\\CEAforArcGIS\\cea\\demand\\demand_main.py'
p10
sS'name'
p11
S'<module>'
p12
sS'module'
p13
S'cea.demand.demand_main'
p14
sbg1
(g2
g3
Ntp15
Rp16
(dp17
g7
S'cea.demand.occupancy_model.<module>'
p18
sg9
S'C:\\Users\\darthoma\\Documents\\GitHub\\CEAforArcGIS\\cea\\demand\\occupancy_model.py'
p19
sg11
g12
sg13
S'cea.demand.occupancy_model'
p20
sbtp21
a(g1
(g2
g3
Ntp22
Rp23
(dp24
g7
S'cea.demand.demand_main.<module>'
p25
sg9
g10
sg11
g12
sg13
g14
sbg1
(g2
g3
Ntp26
Rp27
(dp28
g7
S'cea.demand.thermal_loads.<module>'
p29
sg9
S'C:\\Users\\darthoma\\Documents\\GitHub\\CEAforArcGIS\\cea\\demand\\thermal_loads.py'
p30
sg11
g12
sg13
S'cea.demand.thermal_loads'
p31
sbtp32
a(g1
(g2
g3
Ntp33
Rp34
(dp35
g7
S'cea.demand.thermal_loads.<module>'
p36
sg9
g30
sg11
g12
sg13
g31
sbg1
(g2
g3
Ntp37
Rp38
(dp39
g7
S'cea.demand.rc_model_crank_nicholson_procedure.<module>'
p40
sg9
S'C:\\Users\\darthoma\\Documents\\GitHub\\CEAforArcGIS\\cea\\demand\\rc_model_crank_nicholson_procedure.py'
p41
sg11
g12
sg13
S'cea.demand.rc_model_crank_nicholson_procedure'
p42
sbtp43
a(g1
(g2
g3
Ntp44
Rp45
(dp46
g7
S'cea.demand.rc_model_crank_nicholson_procedure.<module>'
p47
sg9
g41
sg11
g12
sg13
g42
sbg1
(g2
g3
Ntp48
Rp49
(dp50
g7
S'cea.demand.airconditioning_model.<module>'
p51
sg9
S'C:\\Users\\darthoma\\Documents\\GitHub\\CEAforArcGIS\\cea\\demand\\airconditioning_model.py'
p52
sg11
g12
sg13
S'cea.demand.airconditioning_model'
p53
sbtp54
a(g1
(g2
g3
Ntp55
Rp56
(dp57
g7
S'cea.demand.airconditioning_model.<module>'
p58
sg9
g52
sg11
g12
sg13
g53
sbg1
(g2
g3
Ntp59
Rp60
(dp61
g7
S'cea.utilities.<module>'
p62
sg9
S'C:\\Users\\darthoma\\Documents\\GitHub\\CEAforArcGIS\\cea\\utilities\\__init__.py'
p63
sg11
g12
sg13
S'cea.utilities'
p64
sbtp65
a(g1
(g2
g3
Ntp66
Rp67
(dp68
g7
S'cea.demand.airconditioning_model.<module>'
p69
sg9
g52
sg11
g12
sg13
g53
sbg1
(g2
g3
Ntp70
Rp71
(dp72
g7
S'cea.utilities.physics.<module>'
p73
sg9
S'C:\\Users\\darthoma\\Documents\\GitHub\\CEAforArcGIS\\cea\\utilities\\physics.py'
p74
sg11
g12
sg13
S'cea.utilities.physics'
p75
sbtp76
a(g1
(g2
g3
Ntp77
Rp78
(dp79
g7
S'cea.demand.rc_model_crank_nicholson_procedure.<module>'
p80
sg9
g41
sg11
g12
sg13
g42
sbg1
(g2
g3
Ntp81
Rp82
(dp83
g7
S'cea.demand.rc_model_SIA.<module>'
p84
sg9
S'C:\\Users\\darthoma\\Documents\\GitHub\\CEAforArcGIS\\cea\\demand\\rc_model_SIA.py'
p85
sg11
g12
sg13
S'cea.demand.rc_model_SIA'
p86
sbtp87
a(g1
(g2
g3
Ntp88
Rp89
(dp90
g7
S'cea.demand.rc_model_crank_nicholson_procedure.<module>'
p91
sg9
g41
sg11
g12
sg13
g42
sbg1
(g2
g3
Ntp92
Rp93
(dp94
g7
S'cea.demand.control_heating_cooling_systems.<module>'
p95
sg9
S'C:\\Users\\darthoma\\Documents\\GitHub\\CEAforArcGIS\\cea\\demand\\control_heating_cooling_systems.py'
p96
sg11
g12
sg13
S'cea.demand.control_heating_cooling_systems'
p97
sbtp98
a(g1
(g2
g3
Ntp99
Rp100
(dp101
g7
S'cea.demand.control_heating_cooling_systems.<module>'
p102
sg9
g96
sg11
g12
sg13
g97
sbg1
(g2
g3
Ntp103
Rp104
(dp105
g7
S'cea.utilities.helpers.<module>'
p106
sg9
S'C:\\Users\\darthoma\\Documents\\GitHub\\CEAforArcGIS\\cea\\utilities\\helpers.py'
p107
sg11
g12
sg13
S'cea.utilities.helpers'
p108
sbtp109
a(g1
(g2
g3
Ntp110
Rp111
(dp112
g7
S'cea.demand.rc_model_crank_nicholson_procedure.<module>'
p113
sg9
g41
sg11
g12
sg13
g42
sbg1
(g2
g3
Ntp114
Rp115
(dp116
g7
S'cea.demand.space_emission_systems.<module>'
p117
sg9
S'C:\\Users\\darthoma\\Documents\\GitHub\\CEAforArcGIS\\cea\\demand\\space_emission_systems.py'
p118
sg11
g12
sg13
S'cea.demand.space_emission_systems'
p119
sbtp120
a(g1
(g2
g3
Ntp121
Rp122
(dp123
g7
S'cea.demand.thermal_loads.<module>'
p124
sg9
g30
sg11
g12
sg13
g31
sbg1
(g2
g3
Ntp125
Rp126
(dp127
g7
S'cea.demand.ventilation_air_flows_simple.<module>'
p128
sg9
S'C:\\Users\\darthoma\\Documents\\GitHub\\CEAforArcGIS\\cea\\demand\\ventilation_air_flows_simple.py'
p129
sg11
g12
sg13
S'cea.demand.ventilation_air_flows_simple'
p130
sbtp131
a(g1
(g2
g3
Ntp132
Rp133
(dp134
g7
S'cea.demand.ventilation_air_flows_simple.<module>'
p135
sg9
g129
sg11
g12
sg13
g130
sbg1
(g2
g3
Ntp136
Rp137
(dp138
g7
S'cea.demand.control_ventilation_systems.<module>'
p139
sg9
S'C:\\Users\\darthoma\\Documents\\GitHub\\CEAforArcGIS\\cea\\demand\\control_ventilation_systems.py'
p140
sg11
g12
sg13
S'cea.demand.control_ventilation_systems'
p141
sbtp142
a(g1
(g2
g3
Ntp143
Rp144
(dp145
g7
S'cea.demand.thermal_loads.<module>'
p146
sg9
g30
sg11
g12
sg13
g31
sbg1
(g2
g3
Ntp147
Rp148
(dp149
g7
S'cea.demand.sensible_loads.<module>'
p150
sg9
S'C:\\Users\\darthoma\\Documents\\GitHub\\CEAforArcGIS\\cea\\demand\\sensible_loads.py'
p151
sg11
g12
sg13
S'cea.demand.sensible_loads'
p152
sbtp153
a(g1
(g2
g3
Ntp154
Rp155
(dp156
g7
S'cea.demand.thermal_loads.<module>'
p157
sg9
g30
sg11
g12
sg13
g31
sbg1
(g2
g3
Ntp158
Rp159
(dp160
g7
S'cea.demand.electrical_loads.<module>'
p161
sg9
S'C:\\Users\\darthoma\\Documents\\GitHub\\CEAforArcGIS\\cea\\demand\\electrical_loads.py'
p162
sg11
g12
sg13
S'cea.demand.electrical_loads'
p163
sbtp164
a(g1
(g2
g3
Ntp165
Rp166
(dp167
g7
S'cea.demand.thermal_loads.<module>'
p168
sg9
g30
sg11
g12
sg13
g31
sbg1
(g2
g3
Ntp169
Rp170
(dp171
g7
S'cea.demand.hotwater_loads.<module>'
p172
sg9
S'C:\\Users\\darthoma\\Documents\\GitHub\\CEAforArcGIS\\cea\\demand\\hotwater_loads.py'
p173
sg11
g12
sg13
S'cea.demand.hotwater_loads'
p174
sbtp175
a(g1
(g2
g3
Ntp176
Rp177
(dp178
g7
S'cea.demand.hotwater_loads.<module>'
p179
sg9
g173
sg11
g12
sg13
g174
sbg1
(g2
g3
Ntp180
Rp181
(dp182
g7
S'cea.technologies.<module>'
p183
sg9
S'C:\\Users\\darthoma\\Documents\\GitHub\\CEAforArcGIS\\cea\\technologies\\__init__.py'
p184
sg11
g12
sg13
S'cea.technologies'
p185
sbtp186
a(g1
(g2
g3
Ntp187
Rp188
(dp189
g7
S'cea.demand.hotwater_loads.<module>'
p190
sg9
g173
sg11
g12
sg13
g174
sbg1
(g2
g3
Ntp191
Rp192
(dp193
g7
S'cea.technologies.storagetank.<module>'
p194
sg9
S'C:\\Users\\darthoma\\Documents\\GitHub\\CEAforArcGIS\\cea\\technologies\\storagetank.py'
p195
sg11
g12
sg13
S'cea.technologies.storagetank'
p196
sbtp197
a(g1
(g2
g3
Ntp198
Rp199
(dp200
g7
S'cea.demand.thermal_loads.<module>'
p201
sg9
g30
sg11
g12
sg13
g31
sbg1
(g2
g3
Ntp202
Rp203
(dp204
g7
S'cea.demand.refrigeration_loads.<module>'
p205
sg9
S'C:\\Users\\darthoma\\Documents\\GitHub\\CEAforArcGIS\\cea\\demand\\refrigeration_loads.py'
p206
sg11
g12
sg13
S'cea.demand.refrigeration_loads'
p207
sbtp208
a(g1
(g2
g3
Ntp209
Rp210
(dp211
g7
S'cea.demand.thermal_loads.<module>'
p212
sg9
g30
sg11
g12
sg13
g31
sbg1
(g2
g3
Ntp213
Rp214
(dp215
g7
S'cea.demand.datacenter_loads.<module>'
p216
sg9
S'C:\\Users\\darthoma\\Documents\\GitHub\\CEAforArcGIS\\cea\\demand\\datacenter_loads.py'
p217
sg11
g12
sg13
S'cea.demand.datacenter_loads'
p218
sbtp219
a(g1
(g2
g3
Ntp220
Rp221
(dp222
g7
S'cea.demand.thermal_loads.<module>'
p223
sg9
g30
sg11
g12
sg13
g31
sbg1
(g2
g3
Ntp224
Rp225
(dp226
g7
S'cea.technologies.controllers.<module>'
p227
sg9
S'C:\\Users\\darthoma\\Documents\\GitHub\\CEAforArcGIS\\cea\\technologies\\controllers.py'
p228
sg11
g12
sg13
S'cea.technologies.controllers'
p229
sbtp230
a(g1
(g2
g3
Ntp231
Rp232
(dp233
g7
S'cea.demand.thermal_loads.<module>'
p234
sg9
g30
sg11
g12
sg13
g31
sbg1
(g2
g3
Ntp235
Rp236
(dp237
g7
S'cea.demand.thermal_loads.BuildingProperties'
p238
sg9
S'C:\\Users\\darthoma\\Documents\\GitHub\\CEAforArcGIS\\cea\\demand\\thermal_loads.py'
p239
sg11
S'BuildingProperties'
p240
sg13
g31
sbtp241
a(g1
(g2
g3
Ntp242
Rp243
(dp244
g7
S'cea.demand.thermal_loads.<module>'
p245
sg9
g30
sg11
g12
sg13
g31
sbg1
(g2
g3
Ntp246
Rp247
(dp248
g7
S'cea.demand.thermal_loads.BuildingPropertiesRow'
p249
sg9
S'C:\\Users\\darthoma\\Documents\\GitHub\\CEAforArcGIS\\cea\\demand\\thermal_loads.py'
p250
sg11
S'BuildingPropertiesRow'
p251
sg13
g31
sbtp252
a(g1
(g2
g3
Ntp253
Rp254
(dp255
g7
S'cea.demand.demand_main.<module>'
p256
sg9
g10
sg11
g12
sg13
g14
sbg1
(g2
g3
Ntp257
Rp258
(dp259
g7
S'cea.utilities.epwreader.<module>'
p260
sg9
S'C:\\Users\\darthoma\\Documents\\GitHub\\CEAforArcGIS\\cea\\utilities\\epwreader.py'
p261
sg11
g12
sg13
S'cea.utilities.epwreader'
p262
sbtp263
a(g1
(g2
g3
Ntp264
Rp265
(dp266
g7
S'cea.utilities.epwreader.<module>'
p267
sg9
g261
sg11
g12
sg13
g262
sbg1
(g2
g3
Ntp268
Rp269
(dp270
g7
S'cea.globalvar.GlobalVariables.__init__'
p271
sg9
S'C:\\Users\\darthoma\\Documents\\GitHub\\CEAforArcGIS\\cea\\globalvar.py'
p272
sg11
S'__init__'
p273
sg13
S'cea.globalvar'
p274
sbtp275
a(g1
(g2
g3
Ntp276
Rp277
(dp278
g7
S'cea.globalvar.GlobalVariables.__init__'
p279
sg9
g272
sg11
g273
sg13
g274
sbg1
(g2
g3
Ntp280
Rp281
(dp282
g7
S'cea.demand.demand_writers.HourlyDemandWriter.__init__'
p283
sg9
S'C:\\Users\\darthoma\\Documents\\GitHub\\CEAforArcGIS\\cea\\demand\\demand_writers.py'
p284
sg11
g273
sg13
S'cea.demand.demand_writers'
p285
sbtp286
a(g1
(g2
g3
Ntp287
Rp288
(dp289
g7
S'cea.demand.demand_writers.HourlyDemandWriter.__init__'
p290
sg9
g284
sg11
g273
sg13
g285
sbg1
(g2
g3
Ntp291
Rp292
(dp293
g7
S'cea.demand.demand_writers.HourlyDemandWriter.__init__'
p294
sg9
S'C:\\Users\\darthoma\\Documents\\GitHub\\CEAforArcGIS\\cea\\demand\\demand_writers.py'
p295
sg11
g273
sg13
g285
sbtp296
a(g1
(g2
g3
Ntp297
Rp298
(dp299
g7
S'cea.demand.demand_main.demand_calculation'
p300
sg9
S'C:\\Users\\darthoma\\Documents\\GitHub\\CEAforArcGIS\\cea\\demand\\demand_main.py'
p301
sg11
S'demand_calculation'
p302
sg13
g14
sbg1
(g2
g3
Ntp303
Rp304
(dp305
g7
S'cea.inputlocator.InputLocator.get_radiation'
p306
sg9
S'C:\\Users\\darthoma\\Documents\\GitHub\\CEAforArcGIS\\cea\\inputlocator.py'
p307
sg11
S'get_radiation'
p308
sg13
S'cea.inputlocator'
p309
sbtp310
a(g1
(g2
g3
Ntp311
Rp312
(dp313
g7
S'cea.inputlocator.InputLocator.get_radiation'
p314
sg9
g307
sg11
g308
sg13
g309
sbg1
(g2
g3
Ntp315
Rp316
(dp317
g7
S'cea.inputlocator.InputLocator.get_solar_radiation_folder'
p318
sg9
S'C:\\Users\\darthoma\\Documents\\GitHub\\CEAforArcGIS\\cea\\inputlocator.py'
p319
sg11
S'get_solar_radiation_folder'
p320
sg13
g309
sbtp321
a(g1
(g2
g3
Ntp322
Rp323
(dp324
g7
S'cea.inputlocator.InputLocator.get_solar_radiation_folder'
p325
sg9
g319
sg11
g320
sg13
g309
sbg1
(g2
g3
Ntp326
Rp327
(dp328
g7
S'cea.inputlocator._ensure_folder'
p329
sg9
S'C:\\Users\\darthoma\\Documents\\GitHub\\CEAforArcGIS\\cea\\inputlocator.py'
p330
sg11
S'_ensure_folder'
p331
sg13
g309
sbtp332
a(g1
(g2
g3
Ntp333
Rp334
(dp335
g7
S'cea.demand.demand_main.demand_calculation'
p336
sg9
g301
sg11
g302
sg13
g14
sbg1
(g2
g3
Ntp337
Rp338
(dp339
g7
S'cea.inputlocator.InputLocator.get_surface_properties'
p340
sg9
S'C:\\Users\\darthoma\\Documents\\GitHub\\CEAforArcGIS\\cea\\inputlocator.py'
p341
sg11
S'get_surface_properties'
p342
sg13
g309
sbtp343
a(g1
(g2
g3
Ntp344
Rp345
(dp346
g7
S'cea.inputlocator.InputLocator.get_surface_properties'
p347
sg9
g341
sg11
g342
sg13
g309
sbg1
(g2
g3
Ntp348
Rp349
(dp350
g7
S'cea.inputlocator.InputLocator.get_solar_radiation_folder'
p351
sg9
g319
sg11
g320
sg13
g309
sbtp352
a(g1
(g2
g3
Ntp353
Rp354
(dp355
g7
S'cea.demand.demand_main.demand_calculation'
p356
sg9
g301
sg11
g302
sg13
g14
sbg1
(g2
g3
Ntp357
Rp358
(dp359
g7
S'cea.utilities.epwreader.epw_reader'
p360
sg9
S'C:\\Users\\darthoma\\Documents\\GitHub\\CEAforArcGIS\\cea\\utilities\\epwreader.py'
p361
sg11
S'epw_reader'
p362
sg13
g262
sbtp363
a(g1
(g2
g3
Ntp364
Rp365
(dp366
g7
S'cea.utilities.epwreader.epw_reader'
p367
sg9
g361
sg11
g362
sg13
g262
sbg1
(g2
g3
Ntp368
Rp369
(dp370
g7
S'cea.utilities.epwreader.calc_skytemp'
p371
sg9
S'C:\\Users\\darthoma\\Documents\\GitHub\\CEAforArcGIS\\cea\\utilities\\epwreader.py'
p372
sg11
S'calc_skytemp'
p373
sg13
g262
sbtp374
a(g1
(g2
g3
Ntp375
Rp376
(dp377
g7
S'cea.demand.demand_main.demand_calculation'
p378
sg9
g301
sg11
g302
sg13
g14
sbg1
(g2
g3
Ntp379
Rp380
(dp381
g7
S'cea.demand.thermal_loads.BuildingProperties.__init__'
p382
sg9
S'C:\\Users\\darthoma\\Documents\\GitHub\\CEAforArcGIS\\cea\\demand\\thermal_loads.py'
p383
sg11
g273
sg13
g31
sbtp384
a(g1
(g2
g3
Ntp385
Rp386
(dp387
g7
S'cea.demand.thermal_loads.BuildingProperties.__init__'
p388
sg9
g383
sg11
g273
sg13
g31
sbg1
(g2
g3
Ntp389
Rp390
(dp391
g7
S'cea.geometry.<module>'
p392
sg9
S'C:\\Users\\darthoma\\Documents\\GitHub\\CEAforArcGIS\\cea\\geometry\\__init__.py'
p393
sg11
g12
sg13
S'cea.geometry'
p394
sbtp395
a(g1
(g2
g3
Ntp396
Rp397
(dp398
g7
S'cea.demand.thermal_loads.BuildingProperties.__init__'
p399
sg9
g383
sg11
g273
sg13
g31
sbg1
(g2
g3
Ntp400
Rp401
(dp402
g7
S'cea.geometry.geometry_reader.<module>'
p403
sg9
S'C:\\Users\\darthoma\\Documents\\GitHub\\CEAforArcGIS\\cea\\geometry\\geometry_reader.py'
p404
sg11
g12
sg13
S'cea.geometry.geometry_reader'
p405
sbtp406
a(g1
(g2
g3
Ntp407
Rp408
(dp409
g7
S'cea.demand.thermal_loads.BuildingProperties.__init__'
p410
sg9
g383
sg11
g273
sg13
g31
sbg1
(g2
g3
Ntp411
Rp412
(dp413
g7
S'cea.globalvar.GlobalVariables.log'
p414
sg9
S'C:\\Users\\darthoma\\Documents\\GitHub\\CEAforArcGIS\\cea\\globalvar.py'
p415
sg11
S'log'
p416
sg13
g274
sbtp417
a(g1
(g2
g3
Ntp418
Rp419
(dp420
g7
S'cea.demand.thermal_loads.BuildingProperties.__init__'
p421
sg9
g383
sg11
g273
sg13
g31
sbg1
(g2
g3
Ntp422
Rp423
(dp424
g7
S'cea.inputlocator.InputLocator.get_surface_properties'
p425
sg9
g341
sg11
g342
sg13
g309
sbtp426
a(g1
(g2
g3
Ntp427
Rp428
(dp429
g7
S'cea.demand.thermal_loads.BuildingProperties.__init__'
p430
sg9
g383
sg11
g273
sg13
g31
sbg1
(g2
g3
Ntp431
Rp432
(dp433
g7
S'cea.inputlocator.InputLocator.get_building_geometry'
p434
sg9
S'C:\\Users\\darthoma\\Documents\\GitHub\\CEAforArcGIS\\cea\\inputlocator.py'
p435
sg11
S'get_building_geometry'
p436
sg13
g309
sbtp437
a(g1
(g2
g3
Ntp438
Rp439
(dp440
g7
S'cea.demand.thermal_loads.BuildingProperties.__init__'
p441
sg9
g383
sg11
g273
sg13
g31
sbg1
(g2
g3
Ntp442
Rp443
(dp444
g7
S'cea.inputlocator.InputLocator.get_building_hvac'
p445
sg9
S'C:\\Users\\darthoma\\Documents\\GitHub\\CEAforArcGIS\\cea\\inputlocator.py'
p446
sg11
S'get_building_hvac'
p447
sg13
g309
sbtp448
a(g1
(g2
g3
Ntp449
Rp450
(dp451
g7
S'cea.demand.thermal_loads.BuildingProperties.__init__'
p452
sg9
g383
sg11
g273
sg13
g31
sbg1
(g2
g3
Ntp453
Rp454
(dp455
g7
S'cea.inputlocator.InputLocator.get_building_thermal'
p456
sg9
S'C:\\Users\\darthoma\\Documents\\GitHub\\CEAforArcGIS\\cea\\inputlocator.py'
p457
sg11
S'get_building_thermal'
p458
sg13
g309
sbtp459
a(g1
(g2
g3
Ntp460
Rp461
(dp462
g7
S'cea.demand.thermal_loads.BuildingProperties.__init__'
p463
sg9
g383
sg11
g273
sg13
g31
sbg1
(g2
g3
Ntp464
Rp465
(dp466
g7
S'cea.inputlocator.InputLocator.get_building_occupancy'
p467
sg9
S'C:\\Users\\darthoma\\Documents\\GitHub\\CEAforArcGIS\\cea\\inputlocator.py'
p468
sg11
S'get_building_occupancy'
p469
sg13
g309
sbtp470
a(g1
(g2
g3
Ntp471
Rp472
(dp473
g7
S'cea.demand.thermal_loads.BuildingProperties.__init__'
p474
sg9
g383
sg11
g273
sg13
g31
sbg1
(g2
g3
Ntp475
Rp476
(dp477
g7
S'cea.inputlocator.InputLocator.get_building_architecture'
p478
sg9
S'C:\\Users\\darthoma\\Documents\\GitHub\\CEAforArcGIS\\cea\\inputlocator.py'
p479
sg11
S'get_building_architecture'
p480
sg13
g309
sbtp481
a(g1
(g2
g3
Ntp482
Rp483
(dp484
g7
S'cea.demand.thermal_loads.BuildingProperties.__init__'
p485
sg9
g383
sg11
g273
sg13
g31
sbg1
(g2
g3
Ntp486
Rp487
(dp488
g7
S'cea.inputlocator.InputLocator.get_building_age'
p489
sg9
S'C:\\Users\\darthoma\\Documents\\GitHub\\CEAforArcGIS\\cea\\inputlocator.py'
p490
sg11
S'get_building_age'
p491
sg13
g309
sbtp492
a(g1
(g2
g3
Ntp493
Rp494
(dp495
g7
S'cea.demand.thermal_loads.BuildingProperties.__init__'
p496
sg9
g383
sg11
g273
sg13
g31
sbg1
(g2
g3
Ntp497
Rp498
(dp499
g7
S'cea.inputlocator.InputLocator.get_building_comfort'
p500
sg9
S'C:\\Users\\darthoma\\Documents\\GitHub\\CEAforArcGIS\\cea\\inputlocator.py'
p501
sg11
S'get_building_comfort'
p502
sg13
g309
sbtp503
a(g1
(g2
g3
Ntp504
Rp505
(dp506
g7
S'cea.demand.thermal_loads.BuildingProperties.__init__'
p507
sg9
g383
sg11
g273
sg13
g31
sbg1
(g2
g3
Ntp508
Rp509
(dp510
g7
S'cea.inputlocator.InputLocator.get_building_internal'
p511
sg9
S'C:\\Users\\darthoma\\Documents\\GitHub\\CEAforArcGIS\\cea\\inputlocator.py'
p512
sg11
S'get_building_internal'
p513
sg13
g309
sbtp514
a(g1
(g2
g3
Ntp515
Rp516
(dp517
g7
S'cea.demand.thermal_loads.BuildingProperties.__init__'
p518
sg9
g383
sg11
g273
sg13
g31
sbg1
(g2
g3
Ntp519
Rp520
(dp521
g7
S'cea.demand.thermal_loads.get_prop_solar'
p522
sg9
S'C:\\Users\\darthoma\\Documents\\GitHub\\CEAforArcGIS\\cea\\demand\\thermal_loads.py'
p523
sg11
S'get_prop_solar'
p524
sg13
g31
sbtp525
a(g1
(g2
g3
Ntp526
Rp527
(dp528
g7
S'cea.demand.thermal_loads.get_prop_solar'
p529
sg9
g523
sg11
g524
sg13
g31
sbg1
(g2
g3
Ntp530
Rp531
(dp532
g7
S'cea.inputlocator.InputLocator.get_radiation'
p533
sg9
g307
sg11
g308
sg13
g309
sbtp534
a(g1
(g2
g3
Ntp535
Rp536
(dp537
g7
S'cea.demand.thermal_loads.get_prop_solar'
p538
sg9
g523
sg11
g524
sg13
g31
sbg1
(g2
g3
Ntp539
Rp540
(dp541
g7
S'cea.inputlocator.InputLocator.get_surface_properties'
p542
sg9
g341
sg11
g342
sg13
g309
sbtp543
a(g1
(g2
g3
Ntp544
Rp545
(dp546
g7
S'cea.demand.thermal_loads.BuildingProperties.__init__'
p547
sg9
g383
sg11
g273
sg13
g31
sbg1
(g2
g3
Ntp548
Rp549
(dp550
g7
S'cea.demand.thermal_loads.get_temperatures'
p551
sg9
S'C:\\Users\\darthoma\\Documents\\GitHub\\CEAforArcGIS\\cea\\demand\\thermal_loads.py'
p552
sg11
S'get_temperatures'
p553
sg13
g31
sbtp554
a(g1
(g2
g3
Ntp555
Rp556
(dp557
g7
S'cea.demand.thermal_loads.get_temperatures'
p558
sg9
g552
sg11
g553
sg13
g31
sbg1
(g2
g3
Ntp559
Rp560
(dp561
g7
S'cea.inputlocator.InputLocator.get_technical_emission_systems'
p562
sg9
S'C:\\Users\\darthoma\\Documents\\GitHub\\CEAforArcGIS\\cea\\inputlocator.py'
p563
sg11
S'get_technical_emission_systems'
p564
sg13
g309
sbtp565
a(g1
(g2
g3
Ntp566
Rp567
(dp568
g7
S'cea.demand.thermal_loads.BuildingProperties.__init__'
p569
sg9
g383
sg11
g273
sg13
g31
sbg1
(g2
g3
Ntp570
Rp571
(dp572
g7
S'cea.demand.thermal_loads.get_envelope_properties'
p573
sg9
S'C:\\Users\\darthoma\\Documents\\GitHub\\CEAforArcGIS\\cea\\demand\\thermal_loads.py'
p574
sg11
S'get_envelope_properties'
p575
sg13
g31
sbtp576
a(g1
(g2
g3
Ntp577
Rp578
(dp579
g7
S'cea.demand.thermal_loads.get_envelope_properties'
p580
sg9
g574
sg11
g575
sg13
g31
sbg1
(g2
g3
Ntp581
Rp582
(dp583
g7
S'cea.inputlocator.InputLocator.get_envelope_systems'
p584
sg9
S'C:\\Users\\darthoma\\Documents\\GitHub\\CEAforArcGIS\\cea\\inputlocator.py'
p585
sg11
S'get_envelope_systems'
p586
sg13
g309
sbtp587
a(g1
(g2
g3
Ntp588
Rp589
(dp590
g7
S'cea.demand.thermal_loads.BuildingProperties.__init__'
p591
sg9
g383
sg11
g273
sg13
g31
sbg1
(g2
g3
Ntp592
Rp593
(dp594
g7
S'cea.inputlocator.InputLocator.get_building_overrides'
p595
sg9
S'C:\\Users\\darthoma\\Documents\\GitHub\\CEAforArcGIS\\cea\\inputlocator.py'
p596
sg11
S'get_building_overrides'
p597
sg13
g309
sbtp598
a(g1
(g2
g3
Ntp599
Rp600
(dp601
g7
S'cea.demand.thermal_loads.BuildingProperties.__init__'
p602
sg9
g383
sg11
g273
sg13
g31
sbg1
(g2
g3
Ntp603
Rp604
(dp605
g7
S'cea.demand.thermal_loads.BuildingProperties.calc_prop_rc_model'
p606
sg9
S'C:\\Users\\darthoma\\Documents\\GitHub\\CEAforArcGIS\\cea\\demand\\thermal_loads.py'
p607
sg11
S'calc_prop_rc_model'
p608
sg13
g31
sbtp609
a(g1
(g2
g3
Ntp610
Rp611
(dp612
g7
S'cea.demand.thermal_loads.BuildingProperties.calc_prop_rc_model'
p613
sg9
g607
sg11
g608
sg13
g31
sbg1
(g2
g3
Ntp614
Rp615
(dp616
g7
S'cea.demand.thermal_loads.BuildingProperties.get_overrides_columns'
p617
sg9
S'C:\\Users\\darthoma\\Documents\\GitHub\\CEAforArcGIS\\cea\\demand\\thermal_loads.py'
p618
sg11
S'get_overrides_columns'
p619
sg13
g31
sbtp620
a(g1
(g2
g3
Ntp621
Rp622
(dp623
g7
S'cea.demand.thermal_loads.BuildingProperties.calc_prop_rc_model'
p624
sg9
g607
sg11
g608
sg13
g31
sbg1
(g2
g3
Ntp625
Rp626
(dp627
g7
S'cea.demand.thermal_loads.BuildingProperties.lookup_specific_heat_capacity'
p628
sg9
S'C:\\Users\\darthoma\\Documents\\GitHub\\CEAforArcGIS\\cea\\demand\\thermal_loads.py'
p629
sg11
S'lookup_specific_heat_capacity'
p630
sg13
g31
sbtp631
a(g1
(g2
g3
Ntp632
Rp633
(dp634
g7
S'cea.demand.thermal_loads.BuildingProperties.calc_prop_rc_model'
p635
sg9
g607
sg11
g608
sg13
g31
sbg1
(g2
g3
Ntp636
Rp637
(dp638
g7
S'cea.demand.thermal_loads.BuildingProperties.lookup_effective_mass_area_factor'
p639
sg9
S'C:\\Users\\darthoma\\Documents\\GitHub\\CEAforArcGIS\\cea\\demand\\thermal_loads.py'
p640
sg11
S'lookup_effective_mass_area_factor'
p641
sg13
g31
sbtp642
a(g1
(g2
g3
Ntp643
Rp644
(dp645
g7
S'cea.demand.thermal_loads.BuildingProperties.__init__'
p646
sg9
g383
sg11
g273
sg13
g31
sbg1
(g2
g3
Ntp647
Rp648
(dp649
g7
S'cea.geometry.geometry_reader.create_windows'
p650
sg9
S'C:\\Users\\darthoma\\Documents\\GitHub\\CEAforArcGIS\\cea\\geometry\\geometry_reader.py'
p651
sg11
S'create_windows'
p652
sg13
g405
sbtp653
a(g1
(g2
g3
Ntp654
Rp655
(dp656
g7
S'cea.demand.demand_main.demand_calculation'
p657
sg9
g301
sg11
g302
sg13
g14
sbg1
(g2
g3
Ntp658
Rp659
(dp660
g7
S'cea.demand.occupancy_model.schedule_maker'
p661
sg9
S'C:\\Users\\darthoma\\Documents\\GitHub\\CEAforArcGIS\\cea\\demand\\occupancy_model.py'
p662
sg11
S'schedule_maker'
p663
sg13
g20
sbtp664
a(g1
(g2
g3
Ntp665
Rp666
(dp667
g7
S'cea.demand.occupancy_model.schedule_maker'
p668
sg9
g662
sg11
g663
sg13
g20
sbg1
(g2
g3
Ntp669
Rp670
(dp671
g7
S'cea.inputlocator.InputLocator.get_archetypes_schedules'
p672
sg9
S'C:\\Users\\darthoma\\Documents\\GitHub\\CEAforArcGIS\\cea\\inputlocator.py'
p673
sg11
S'get_archetypes_schedules'
p674
sg13
g309
sbtp675
a(g1
(g2
g3
Ntp676
Rp677
(dp678
g7
S'cea.demand.occupancy_model.schedule_maker'
p679
sg9
g662
sg11
g663
sg13
g20
sbg1
(g2
g3
Ntp680
Rp681
(dp682
g7
S'cea.demand.occupancy_model.read_schedules'
p683
sg9
S'C:\\Users\\darthoma\\Documents\\GitHub\\CEAforArcGIS\\cea\\demand\\occupancy_model.py'
p684
sg11
S'read_schedules'
p685
sg13
g20
sbtp686
a(g1
(g2
g3
Ntp687
Rp688
(dp689
g7
S'cea.demand.occupancy_model.schedule_maker'
p690
sg9
g662
sg11
g663
sg13
g20
sbg1
(g2
g3
Ntp691
Rp692
(dp693
g7
S'cea.demand.occupancy_model.get_yearly_vectors'
p694
sg9
S'C:\\Users\\darthoma\\Documents\\GitHub\\CEAforArcGIS\\cea\\demand\\occupancy_model.py'
p695
sg11
S'get_yearly_vectors'
p696
sg13
g20
sbtp697
a(g1
(g2
g3
Ntp698
Rp699
(dp700
g7
S'cea.demand.demand_main.demand_calculation'
p701
sg9
g301
sg11
g302
sg13
g14
sbg1
(g2
g3
Ntp702
Rp703
(dp704
g7
S'cea.demand.demand_main.thermal_loads_all_buildings'
p705
sg9
S'C:\\Users\\darthoma\\Documents\\GitHub\\CEAforArcGIS\\cea\\demand\\demand_main.py'
p706
sg11
S'thermal_loads_all_buildings'
p707
sg13
g14
sbtp708
a(g1
(g2
g3
Ntp709
Rp710
(dp711
g7
S'cea.demand.demand_main.thermal_loads_all_buildings'
p712
sg9
g706
sg11
g707
sg13
g14
sbg1
(g2
g3
Ntp713
Rp714
(dp715
g7
S'cea.demand.thermal_loads.BuildingProperties.__getitem__'
p716
sg9
S'C:\\Users\\darthoma\\Documents\\GitHub\\CEAforArcGIS\\cea\\demand\\thermal_loads.py'
p717
sg11
S'__getitem__'
p718
sg13
g31
sbtp719
a(g1
(g2
g3
Ntp720
Rp721
(dp722
g7
S'cea.demand.thermal_loads.BuildingProperties.__getitem__'
p723
sg9
g717
sg11
g718
sg13
g31
sbg1
(g2
g3
Ntp724
Rp725
(dp726
g7
S'cea.demand.thermal_loads.BuildingProperties.get_prop_geometry'
p727
sg9
S'C:\\Users\\darthoma\\Documents\\GitHub\\CEAforArcGIS\\cea\\demand\\thermal_loads.py'
p728
sg11
S'get_prop_geometry'
p729
sg13
g31
sbtp730
a(g1
(g2
g3
Ntp731
Rp732
(dp733
g7
S'cea.demand.thermal_loads.BuildingProperties.__getitem__'
p734
sg9
g717
sg11
g718
sg13
g31
sbg1
(g2
g3
Ntp735
Rp736
(dp737
g7
S'cea.demand.thermal_loads.BuildingProperties.get_prop_architecture'
p738
sg9
S'C:\\Users\\darthoma\\Documents\\GitHub\\CEAforArcGIS\\cea\\demand\\thermal_loads.py'
p739
sg11
S'get_prop_architecture'
p740
sg13
g31
sbtp741
a(g1
(g2
g3
Ntp742
Rp743
(dp744
g7
S'cea.demand.thermal_loads.BuildingProperties.__getitem__'
p745
sg9
g717
sg11
g718
sg13
g31
sbg1
(g2
g3
Ntp746
Rp747
(dp748
g7
S'cea.demand.thermal_loads.BuildingProperties.get_prop_occupancy'
p749
sg9
S'C:\\Users\\darthoma\\Documents\\GitHub\\CEAforArcGIS\\cea\\demand\\thermal_loads.py'
p750
sg11
S'get_prop_occupancy'
p751
sg13
g31
sbtp752
a(g1
(g2
g3
Ntp753
Rp754
(dp755
g7
S'cea.demand.thermal_loads.BuildingProperties.__getitem__'
p756
sg9
g717
sg11
g718
sg13
g31
sbg1
(g2
g3
Ntp757
Rp758
(dp759
g7
S'cea.demand.thermal_loads.BuildingProperties.get_prop_hvac'
p760
sg9
S'C:\\Users\\darthoma\\Documents\\GitHub\\CEAforArcGIS\\cea\\demand\\thermal_loads.py'
p761
sg11
S'get_prop_hvac'
p762
sg13
g31
sbtp763
a(g1
(g2
g3
Ntp764
Rp765
(dp766
g7
S'cea.demand.thermal_loads.BuildingProperties.__getitem__'
p767
sg9
g717
sg11
g718
sg13
g31
sbg1
(g2
g3
Ntp768
Rp769
(dp770
g7
S'cea.demand.thermal_loads.BuildingProperties.get_prop_rc_model'
p771
sg9
S'C:\\Users\\darthoma\\Documents\\GitHub\\CEAforArcGIS\\cea\\demand\\thermal_loads.py'
p772
sg11
S'get_prop_rc_model'
p773
sg13
g31
sbtp774
a(g1
(g2
g3
Ntp775
Rp776
(dp777
g7
S'cea.demand.thermal_loads.BuildingProperties.__getitem__'
p778
sg9
g717
sg11
g718
sg13
g31
sbg1
(g2
g3
Ntp779
Rp780
(dp781
g7
S'cea.demand.thermal_loads.BuildingProperties.get_prop_comfort'
p782
sg9
S'C:\\Users\\darthoma\\Documents\\GitHub\\CEAforArcGIS\\cea\\demand\\thermal_loads.py'
p783
sg11
S'get_prop_comfort'
p784
sg13
g31
sbtp785
a(g1
(g2
g3
Ntp786
Rp787
(dp788
g7
S'cea.demand.thermal_loads.BuildingProperties.__getitem__'
p789
sg9
g717
sg11
g718
sg13
g31
sbg1
(g2
g3
Ntp790
Rp791
(dp792
g7
S'cea.demand.thermal_loads.BuildingProperties.get_prop_internal_loads'
p793
sg9
S'C:\\Users\\darthoma\\Documents\\GitHub\\CEAforArcGIS\\cea\\demand\\thermal_loads.py'
p794
sg11
S'get_prop_internal_loads'
p795
sg13
g31
sbtp796
a(g1
(g2
g3
Ntp797
Rp798
(dp799
g7
S'cea.demand.thermal_loads.BuildingProperties.__getitem__'
p800
sg9
g717
sg11
g718
sg13
g31
sbg1
(g2
g3
Ntp801
Rp802
(dp803
g7
S'cea.demand.thermal_loads.BuildingProperties.get_prop_age'
p804
sg9
S'C:\\Users\\darthoma\\Documents\\GitHub\\CEAforArcGIS\\cea\\demand\\thermal_loads.py'
p805
sg11
S'get_prop_age'
p806
sg13
g31
sbtp807
a(g1
(g2
g3
Ntp808
Rp809
(dp810
g7
S'cea.demand.thermal_loads.BuildingProperties.__getitem__'
p811
sg9
g717
sg11
g718
sg13
g31
sbg1
(g2
g3
Ntp812
Rp813
(dp814
g7
S'cea.demand.thermal_loads.BuildingProperties.get_solar'
p815
sg9
S'C:\\Users\\darthoma\\Documents\\GitHub\\CEAforArcGIS\\cea\\demand\\thermal_loads.py'
p816
sg11
S'get_solar'
p817
sg13
g31
sbtp818
a(g1
(g2
g3
Ntp819
Rp820
(dp821
g7
S'cea.demand.thermal_loads.BuildingProperties.__getitem__'
p822
sg9
g717
sg11
g718
sg13
g31
sbg1
(g2
g3
Ntp823
Rp824
(dp825
g7
S'cea.demand.thermal_loads.BuildingProperties.get_prop_windows'
p826
sg9
S'C:\\Users\\darthoma\\Documents\\GitHub\\CEAforArcGIS\\cea\\demand\\thermal_loads.py'
p827
sg11
S'get_prop_windows'
p828
sg13
g31
sbtp829
a(g1
(g2
g3
Ntp830
Rp831
(dp832
g7
S'cea.demand.thermal_loads.BuildingProperties.__getitem__'
p833
sg9
g717
sg11
g718
sg13
g31
sbg1
(g2
g3
Ntp834
Rp835
(dp836
g7
S'cea.demand.thermal_loads.BuildingPropertiesRow.__init__'
p837
sg9
S'C:\\Users\\darthoma\\Documents\\GitHub\\CEAforArcGIS\\cea\\demand\\thermal_loads.py'
p838
sg11
g273
sg13
g31
sbtp839
a(g1
(g2
g3
Ntp840
Rp841
(dp842
g7
S'cea.demand.thermal_loads.BuildingPropertiesRow.__init__'
p843
sg9
g838
sg11
g273
sg13
g31
sbg1
(g2
g3
Ntp844
Rp845
(dp846
g7
S'cea.demand.thermal_loads.BuildingPropertiesRow._get_properties_building_systems'
p847
sg9
S'C:\\Users\\darthoma\\Documents\\GitHub\\CEAforArcGIS\\cea\\demand\\thermal_loads.py'
p848
sg11
S'_get_properties_building_systems'
p849
sg13
g31
sbtp850
a(g1
(g2
g3
Ntp851
Rp852
(dp853
g7
S'cea.demand.thermal_loads.BuildingPropertiesRow._get_properties_building_systems'
p854
sg9
g848
sg11
g849
sg13
g31
sbg1
(g2
g3
Ntp855
Rp856
(dp857
g7
S'cea.demand.thermal_loads.BuildingPropertiesRow._calculate_pipe_transmittance_values'
p858
sg9
S'C:\\Users\\darthoma\\Documents\\GitHub\\CEAforArcGIS\\cea\\demand\\thermal_loads.py'
p859
sg11
S'_calculate_pipe_transmittance_values'
p860
sg13
g31
sbtp861
a(g1
(g2
g3
Ntp862
Rp863
(dp864
g7
S'cea.demand.thermal_loads.BuildingPropertiesRow._get_properties_building_systems'
p865
sg9
g848
sg11
g849
sg13
g31
sbg1
(g2
g3
Ntp866
Rp867
(dp868
g7
S'cea.demand.thermal_loads.BuildingPropertiesRow._calc_form'
p869
sg9
S'C:\\Users\\darthoma\\Documents\\GitHub\\CEAforArcGIS\\cea\\demand\\thermal_loads.py'
p870
sg11
S'_calc_form'
p871
sg13
g31
sbtp872
a(g1
(g2
g3
Ntp873
Rp874
(dp875
g7
S'cea.demand.demand_main.thermal_loads_all_buildings'
p876
sg9
g706
sg11
g707
sg13
g14
sbg1
(g2
g3
Ntp877
Rp878
(dp879
g7
S'cea.demand.thermal_loads.calc_thermal_loads'
p880
sg9
S'C:\\Users\\darthoma\\Documents\\GitHub\\CEAforArcGIS\\cea\\demand\\thermal_loads.py'
p881
sg11
S'calc_thermal_loads'
p882
sg13
g31
sbtp883
a(g1
(g2
g3
Ntp884
Rp885
(dp886
g7
S'cea.demand.thermal_loads.calc_thermal_loads'
p887
sg9
g881
sg11
g882
sg13
g31
sbg1
(g2
g3
Ntp888
Rp889
(dp890
g7
S'cea.demand.thermal_loads.initialize_timestep_data'
p891
sg9
S'C:\\Users\\darthoma\\Documents\\GitHub\\CEAforArcGIS\\cea\\demand\\thermal_loads.py'
p892
sg11
S'initialize_timestep_data'
p893
sg13
g31
sbtp894
a(g1
(g2
g3
Ntp895
Rp896
(dp897
g7
S'cea.demand.thermal_loads.initialize_timestep_data'
p898
sg9
g892
sg11
g893
sg13
g31
sbg1
(g2
g3
Ntp899
Rp900
(dp901
g7
S'cea.demand.thermal_loads.<genexpr>'
p902
sg9
S'C:\\Users\\darthoma\\Documents\\GitHub\\CEAforArcGIS\\cea\\demand\\thermal_loads.py'
p903
sg11
S'<genexpr>'
p904
sg13
g31
sbtp905
a(g1
(g2
g3
Ntp906
Rp907
(dp908
g7
S'cea.demand.thermal_loads.calc_thermal_loads'
p909
sg9
g881
sg11
g882
sg13
g31
sbg1
(g2
g3
Ntp910
Rp911
(dp912
g7
S'cea.demand.occupancy_model.calc_occ'
p913
sg9
S'C:\\Users\\darthoma\\Documents\\GitHub\\CEAforArcGIS\\cea\\demand\\occupancy_model.py'
p914
sg11
S'calc_occ'
p915
sg13
g20
sbtp916
a(g1
(g2
g3
Ntp917
Rp918
(dp919
g7
S'cea.demand.occupancy_model.calc_occ'
p920
sg9
g914
sg11
g915
sg13
g20
sbg1
(g2
g3
Ntp921
Rp922
(dp923
g7
S'cea.demand.occupancy_model.calc_occ_schedule'
p924
sg9
S'C:\\Users\\darthoma\\Documents\\GitHub\\CEAforArcGIS\\cea\\demand\\occupancy_model.py'
p925
sg11
S'calc_occ_schedule'
p926
sg13
g20
sbtp927
a(g1
(g2
g3
Ntp928
Rp929
(dp930
g7
S'cea.demand.occupancy_model.calc_occ_schedule'
p931
sg9
g925
sg11
g926
sg13
g20
sbg1
(g2
g3
Ntp932
Rp933
(dp934
g7
S'cea.demand.occupancy_model.calc_average'
p935
sg9
S'C:\\Users\\darthoma\\Documents\\GitHub\\CEAforArcGIS\\cea\\demand\\occupancy_model.py'
p936
sg11
S'calc_average'
p937
sg13
g20
sbtp938
a(g1
(g2
g3
Ntp939
Rp940
(dp941
g7
S'cea.demand.thermal_loads.calc_thermal_loads'
p942
sg9
g881
sg11
g882
sg13
g31
sbg1
(g2
g3
Ntp943
Rp944
(dp945
g7
S'cea.demand.electrical_loads.calc_Eint'
p946
sg9
S'C:\\Users\\darthoma\\Documents\\GitHub\\CEAforArcGIS\\cea\\demand\\electrical_loads.py'
p947
sg11
S'calc_Eint'
p948
sg13
g163
sbtp949
a(g1
(g2
g3
Ntp950
Rp951
(dp952
g7
S'cea.demand.electrical_loads.calc_Eint'
p953
sg9
g947
sg11
g948
sg13
g163
sbg1
(g2
g3
Ntp954
Rp955
(dp956
g7
S'cea.demand.electrical_loads.average_appliances_lighting_schedule'
p957
sg9
S'C:\\Users\\darthoma\\Documents\\GitHub\\CEAforArcGIS\\cea\\demand\\electrical_loads.py'
p958
sg11
S'average_appliances_lighting_schedule'
p959
sg13
g163
sbtp960
a(g1
(g2
g3
Ntp961
Rp962
(dp963
g7
S'cea.demand.electrical_loads.average_appliances_lighting_schedule'
p964
sg9
g958
sg11
g959
sg13
g163
sbg1
(g2
g3
Ntp965
Rp966
(dp967
g7
S'cea.demand.electrical_loads.calc_average'
p968
sg9
S'C:\\Users\\darthoma\\Documents\\GitHub\\CEAforArcGIS\\cea\\demand\\electrical_loads.py'
p969
sg11
g937
sg13
g163
sbtp970
a(g1
(g2
g3
Ntp971
Rp972
(dp973
g7
S'cea.demand.thermal_loads.calc_thermal_loads'
p974
sg9
g881
sg11
g882
sg13
g31
sbg1
(g2
g3
Ntp975
Rp976
(dp977
g7
S'cea.demand.refrigeration_loads.calc_Qcref'
p978
sg9
S'C:\\Users\\darthoma\\Documents\\GitHub\\CEAforArcGIS\\cea\\demand\\refrigeration_loads.py'
p979
sg11
S'calc_Qcref'
p980
sg13
g207
sbtp981
a(g1
(g2
g3
Ntp982
Rp983
(dp984
g7
S'cea.demand.thermal_loads.calc_thermal_loads'
p985
sg9
g881
sg11
g882
sg13
g31
sbg1
(g2
g3
Ntp986
Rp987
(dp988
g7
S'cea.demand.datacenter_loads.calc_Qcdataf'
p989
sg9
S'C:\\Users\\darthoma\\Documents\\GitHub\\CEAforArcGIS\\cea\\demand\\datacenter_loads.py'
p990
sg11
S'calc_Qcdataf'
p991
sg13
g218
sbtp992
a(g1
(g2
g3
Ntp993
Rp994
(dp995
g7
S'cea.demand.thermal_loads.calc_thermal_loads'
p996
sg9
g881
sg11
g882
sg13
g31
sbg1
(g2
g3
Ntp997
Rp998
(dp999
g7
S'cea.demand.ventilation_air_flows_simple.calc_m_ve_required'
p1000
sg9
S'C:\\Users\\darthoma\\Documents\\GitHub\\CEAforArcGIS\\cea\\demand\\ventilation_air_flows_simple.py'
p1001
sg11
S'calc_m_ve_required'
p1002
sg13
g130
sbtp1003
a(g1
(g2
g3
Ntp1004
Rp1005
(dp1006
g7
S'cea.demand.ventilation_air_flows_simple.calc_m_ve_required'
p1007
sg9
g1001
sg11
g1002
sg13
g130
sbg1
(g2
g3
Ntp1008
Rp1009
(dp1010
g7
S'cea.utilities.physics.calc_rho_air'
p1011
sg9
S'C:\\Users\\darthoma\\Documents\\GitHub\\CEAforArcGIS\\cea\\utilities\\physics.py'
p1012
sg11
S'calc_rho_air'
p1013
sg13
g75
sbtp1014
a(g1
(g2
g3
Ntp1015
Rp1016
(dp1017
g7
S'cea.demand.thermal_loads.calc_thermal_loads'
p1018
sg9
g881
sg11
g882
sg13
g31
sbg1
(g2
g3
Ntp1019
Rp1020
(dp1021
g7
S'cea.demand.ventilation_air_flows_simple.calc_m_ve_leakage_simple'
p1022
sg9
S'C:\\Users\\darthoma\\Documents\\GitHub\\CEAforArcGIS\\cea\\demand\\ventilation_air_flows_simple.py'
p1023
sg11
S'calc_m_ve_leakage_simple'
p1024
sg13
g130
sbtp1025
a(g1
(g2
g3
Ntp1026
Rp1027
(dp1028
g7
S'cea.demand.ventilation_air_flows_simple.calc_m_ve_leakage_simple'
p1029
sg9
g1023
sg11
g1024
sg13
g130
sbg1
(g2
g3
Ntp1030
Rp1031
(dp1032
g7
S'cea.utilities.physics.calc_rho_air'
p1033
sg9
g1012
sg11
g1013
sg13
g75
sbtp1034
a(g1
(g2
g3
Ntp1035
Rp1036
(dp1037
g7
S'cea.demand.thermal_loads.calc_thermal_loads'
p1038
sg9
g881
sg11
g882
sg13
g31
sbg1
(g2
g3
Ntp1039
Rp1040
(dp1041
g7
S'cea.technologies.controllers.calc_simple_temp_control'
p1042
sg9
S'C:\\Users\\darthoma\\Documents\\GitHub\\CEAforArcGIS\\cea\\technologies\\controllers.py'
p1043
sg11
S'calc_simple_temp_control'
p1044
sg13
g229
sbtp1045
a(g1
(g2
g3
Ntp1046
Rp1047
(dp1048
g7
S'cea.technologies.controllers.calc_simple_temp_control'
p1049
sg9
g1043
sg11
g1044
sg13
g229
sbg1
(g2
g3
Ntp1050
Rp1051
(dp1052
g7
S'cea.technologies.controllers.get_hsetpoint'
p1053
sg9
S'C:\\Users\\darthoma\\Documents\\GitHub\\CEAforArcGIS\\cea\\technologies\\controllers.py'
p1054
sg11
S'get_hsetpoint'
p1055
sg13
g229
sbtp1056
a(g1
(g2
g3
Ntp1057
Rp1058
(dp1059
g7
S'cea.technologies.controllers.calc_simple_temp_control'
p1060
sg9
g1043
sg11
g1044
sg13
g229
sbg1
(g2
g3
Ntp1061
Rp1062
(dp1063
g7
S'cea.technologies.controllers.get_csetpoint'
p1064
sg9
S'C:\\Users\\darthoma\\Documents\\GitHub\\CEAforArcGIS\\cea\\technologies\\controllers.py'
p1065
sg11
S'get_csetpoint'
p1066
sg13
g229
sbtp1067
a(g1
(g2
g3
Ntp1068
Rp1069
(dp1070
g7
S'cea.demand.thermal_loads.calc_thermal_loads'
p1071
sg9
g881
sg11
g882
sg13
g31
sbg1
(g2
g3
Ntp1072
Rp1073
(dp1074
g7
S'cea.demand.sensible_loads.calc_Qgain_lat'
p1075
sg9
S'C:\\Users\\darthoma\\Documents\\GitHub\\CEAforArcGIS\\cea\\demand\\sensible_loads.py'
p1076
sg11
S'calc_Qgain_lat'
p1077
sg13
g152
sbtp1078
a(g1
(g2
g3
Ntp1079
Rp1080
(dp1081
g7
S'cea.demand.thermal_loads.calc_thermal_loads'
p1082
sg9
g881
sg11
g882
sg13
g31
sbg1
(g2
g3
Ntp1083
Rp1084
(dp1085
g7
S'cea.utilities.helpers.seasonhour_2_hoy'
p1086
sg9
S'C:\\Users\\darthoma\\Documents\\GitHub\\CEAforArcGIS\\cea\\utilities\\helpers.py'
p1087
sg11
S'seasonhour_2_hoy'
p1088
sg13
g108
sbtp1089
a(g1
(g2
g3
Ntp1090
Rp1091
(dp1092
g7
S'cea.utilities.helpers.seasonhour_2_hoy'
p1093
sg9
g1087
sg11
g1088
sg13
g108
sbg1
(g2
g3
Ntp1094
Rp1095
(dp1096
g7
S'cea.utilities.helpers.check_hoy'
p1097
sg9
S'C:\\Users\\darthoma\\Documents\\GitHub\\CEAforArcGIS\\cea\\utilities\\helpers.py'
p1098
sg11
S'check_hoy'
p1099
sg13
g108
sbtp1100
a(g1
(g2
g3
Ntp1101
Rp1102
(dp1103
g7
S'cea.demand.thermal_loads.calc_thermal_loads'
p1104
sg9
g881
sg11
g882
sg13
g31
sbg1
(g2
g3
Ntp1105
Rp1106
(dp1107
g7
S'cea.demand.sensible_loads.calc_Qgain_sen'
p1108
sg9
S'C:\\Users\\darthoma\\Documents\\GitHub\\CEAforArcGIS\\cea\\demand\\sensible_loads.py'
p1109
sg11
S'calc_Qgain_sen'
p1110
sg13
g152
sbtp1111
a(g1
(g2
g3
Ntp1112
Rp1113
(dp1114
g7
S'cea.demand.sensible_loads.calc_Qgain_sen'
p1115
sg9
g1109
sg11
g1110
sg13
g152
sbg1
(g2
g3
Ntp1116
Rp1117
(dp1118
g7
S'cea.demand.sensible_loads.calc_I_sol'
p1119
sg9
S'C:\\Users\\darthoma\\Documents\\GitHub\\CEAforArcGIS\\cea\\demand\\sensible_loads.py'
p1120
sg11
S'calc_I_sol'
p1121
sg13
g152
sbtp1122
a(g1
(g2
g3
Ntp1123
Rp1124
(dp1125
g7
S'cea.demand.sensible_loads.calc_I_sol'
p1126
sg9
g1120
sg11
g1121
sg13
g152
sbg1
(g2
g3
Ntp1127
Rp1128
(dp1129
g7
S'cea.demand.sensible_loads.calc_Asol'
p1130
sg9
S'C:\\Users\\darthoma\\Documents\\GitHub\\CEAforArcGIS\\cea\\demand\\sensible_loads.py'
p1131
sg11
S'calc_Asol'
p1132
sg13
g152
sbtp1133
a(g1
(g2
g3
Ntp1134
Rp1135
(dp1136
g7
S'cea.demand.sensible_loads.calc_Asol'
p1137
sg9
g1131
sg11
g1132
sg13
g152
sbg1
(g2
g3
Ntp1138
Rp1139
(dp1140
g7
S'cea.technologies.blinds.<module>'
p1141
sg9
S'C:\\Users\\darthoma\\Documents\\GitHub\\CEAforArcGIS\\cea\\technologies\\blinds.py'
p1142
sg11
g12
sg13
S'cea.technologies.blinds'
p1143
sbtp1144
a(g1
(g2
g3
Ntp1145
Rp1146
(dp1147
g7
S'cea.demand.sensible_loads.calc_Asol'
p1148
sg9
g1131
sg11
g1132
sg13
g152
sbg1
(g2
g3
Ntp1149
Rp1150
(dp1151
g7
S'cea.technologies.blinds.calc_blinds_activation'
p1152
sg9
S'C:\\Users\\darthoma\\Documents\\GitHub\\CEAforArcGIS\\cea\\technologies\\blinds.py'
p1153
sg11
S'calc_blinds_activation'
p1154
sg13
g1143
sbtp1155
a(g1
(g2
g3
Ntp1156
Rp1157
(dp1158
g7
S'cea.demand.sensible_loads.calc_I_sol'
p1159
sg9
g1120
sg11
g1121
sg13
g152
sbg1
(g2
g3
Ntp1160
Rp1161
(dp1162
g7
S'cea.demand.sensible_loads.calc_I_rad'
p1163
sg9
S'C:\\Users\\darthoma\\Documents\\GitHub\\CEAforArcGIS\\cea\\demand\\sensible_loads.py'
p1164
sg11
S'calc_I_rad'
p1165
sg13
g152
sbtp1166
a(g1
(g2
g3
Ntp1167
Rp1168
(dp1169
g7
S'cea.demand.sensible_loads.calc_I_rad'
p1170
sg9
g1164
sg11
g1165
sg13
g152
sbg1
(g2
g3
Ntp1171
Rp1172
(dp1173
g7
S'cea.demand.sensible_loads.calc_hr'
p1174
sg9
S'C:\\Users\\darthoma\\Documents\\GitHub\\CEAforArcGIS\\cea\\demand\\sensible_loads.py'
p1175
sg11
S'calc_hr'
p1176
sg13
g152
sbtp1177
a(g1
(g2
g3
Ntp1178
Rp1179
(dp1180
g7
S'cea.demand.thermal_loads.calc_thermal_loads'
p1181
sg9
g881
sg11
g882
sg13
g31
sbg1
(g2
g3
Ntp1182
Rp1183
(dp1184
g7
S'cea.demand.ventilation_air_flows_simple.calc_air_mass_flow_mechanical_ventilation'
p1185
sg9
S'C:\\Users\\darthoma\\Documents\\GitHub\\CEAforArcGIS\\cea\\demand\\ventilation_air_flows_simple.py'
p1186
sg11
S'calc_air_mass_flow_mechanical_ventilation'
p1187
sg13
g130
sbtp1188
a(g1
(g2
g3
Ntp1189
Rp1190
(dp1191
g7
S'cea.demand.ventilation_air_flows_simple.calc_air_mass_flow_mechanical_ventilation'
p1192
sg9
g1186
sg11
g1187
sg13
g130
sbg1
(g2
g3
Ntp1193
Rp1194
(dp1195
g7
S'cea.demand.control_ventilation_systems.is_mechanical_ventilation_active'
p1196
sg9
S'C:\\Users\\darthoma\\Documents\\GitHub\\CEAforArcGIS\\cea\\demand\\control_ventilation_systems.py'
p1197
sg11
S'is_mechanical_ventilation_active'
p1198
sg13
g141
sbtp1199
a(g1
(g2
g3
Ntp1200
Rp1201
(dp1202
g7
S'cea.demand.control_ventilation_systems.is_mechanical_ventilation_active'
p1203
sg9
g1197
sg11
g1198
sg13
g141
sbg1
(g2
g3
Ntp1204
Rp1205
(dp1206
g7
S'cea.demand.control_ventilation_systems.has_mechanical_ventilation'
p1207
sg9
S'C:\\Users\\darthoma\\Documents\\GitHub\\CEAforArcGIS\\cea\\demand\\control_ventilation_systems.py'
p1208
sg11
S'has_mechanical_ventilation'
p1209
sg13
g141
sbtp1210
a(g1
(g2
g3
Ntp1211
Rp1212
(dp1213
g7
S'cea.demand.control_ventilation_systems.is_mechanical_ventilation_active'
p1214
sg9
g1197
sg11
g1198
sg13
g141
sbg1
(g2
g3
Ntp1215
Rp1216
(dp1217
g7
S'cea.demand.control_ventilation_systems.is_night_flushing_active'
p1218
sg9
S'C:\\Users\\darthoma\\Documents\\GitHub\\CEAforArcGIS\\cea\\demand\\control_ventilation_systems.py'
p1219
sg11
S'is_night_flushing_active'
p1220
sg13
g141
sbtp1221
a(g1
(g2
g3
Ntp1222
Rp1223
(dp1224
g7
S'cea.demand.control_ventilation_systems.is_night_flushing_active'
p1225
sg9
g1219
sg11
g1220
sg13
g141
sbg1
(g2
g3
Ntp1226
Rp1227
(dp1228
g7
S'cea.demand.control_ventilation_systems.has_night_flushing'
p1229
sg9
S'C:\\Users\\darthoma\\Documents\\GitHub\\CEAforArcGIS\\cea\\demand\\control_ventilation_systems.py'
p1230
sg11
S'has_night_flushing'
p1231
sg13
g141
sbtp1232
a(g1
(g2
g3
Ntp1233
Rp1234
(dp1235
g7
S'cea.demand.control_ventilation_systems.is_night_flushing_active'
p1236
sg9
g1219
sg11
g1220
sg13
g141
sbg1
(g2
g3
Ntp1237
Rp1238
(dp1239
g7
S'cea.utilities.helpers.is_coolingseason_hoy'
p1240
sg9
S'C:\\Users\\darthoma\\Documents\\GitHub\\CEAforArcGIS\\cea\\utilities\\helpers.py'
p1241
sg11
S'is_coolingseason_hoy'
p1242
sg13
g108
sbtp1243
a(g1
(g2
g3
Ntp1244
Rp1245
(dp1246
g7
S'cea.utilities.helpers.is_coolingseason_hoy'
p1247
sg9
g1241
sg11
g1242
sg13
g108
sbg1
(g2
g3
Ntp1248
Rp1249
(dp1250
g7
S'cea.utilities.helpers.check_hoy'
p1251
sg9
g1098
sg11
g1099
sg13
g108
sbtp1252
a(g1
(g2
g3
Ntp1253
Rp1254
(dp1255
g7
S'cea.utilities.helpers.is_coolingseason_hoy'
p1256
sg9
g1241
sg11
g1242
sg13
g108
sbg1
(g2
g3
Ntp1257
Rp1258
(dp1259
g7
S'cea.utilities.helpers.is_heatingseason_hoy'
p1260
sg9
S'C:\\Users\\darthoma\\Documents\\GitHub\\CEAforArcGIS\\cea\\utilities\\helpers.py'
p1261
sg11
S'is_heatingseason_hoy'
p1262
sg13
g108
sbtp1263
a(g1
(g2
g3
Ntp1264
Rp1265
(dp1266
g7
S'cea.utilities.helpers.is_heatingseason_hoy'
p1267
sg9
g1261
sg11
g1262
sg13
g108
sbg1
(g2
g3
Ntp1268
Rp1269
(dp1270
g7
S'cea.utilities.helpers.check_hoy'
p1271
sg9
g1098
sg11
g1099
sg13
g108
sbtp1272
a(g1
(g2
g3
Ntp1273
Rp1274
(dp1275
g7
S'cea.demand.control_ventilation_systems.is_night_flushing_active'
p1276
sg9
g1219
sg11
g1220
sg13
g141
sbg1
(g2
g3
Ntp1277
Rp1278
(dp1279
g7
S'cea.utilities.helpers.is_nighttime_hoy'
p1280
sg9
S'C:\\Users\\darthoma\\Documents\\GitHub\\CEAforArcGIS\\cea\\utilities\\helpers.py'
p1281
sg11
S'is_nighttime_hoy'
p1282
sg13
g108
sbtp1283
a(g1
(g2
g3
Ntp1284
Rp1285
(dp1286
g7
S'cea.utilities.helpers.is_nighttime_hoy'
p1287
sg9
g1281
sg11
g1282
sg13
g108
sbg1
(g2
g3
Ntp1288
Rp1289
(dp1290
g7
S'cea.utilities.helpers.check_hoy'
p1291
sg9
g1098
sg11
g1099
sg13
g108
sbtp1292
a(g1
(g2
g3
Ntp1293
Rp1294
(dp1295
g7
S'cea.utilities.helpers.is_nighttime_hoy'
p1296
sg9
g1281
sg11
g1282
sg13
g108
sbg1
(g2
g3
Ntp1297
Rp1298
(dp1299
g7
S'cea.utilities.helpers.hoy_2_hod'
p1300
sg9
S'C:\\Users\\darthoma\\Documents\\GitHub\\CEAforArcGIS\\cea\\utilities\\helpers.py'
p1301
sg11
S'hoy_2_hod'
p1302
sg13
g108
sbtp1303
a(g1
(g2
g3
Ntp1304
Rp1305
(dp1306
g7
S'cea.utilities.helpers.hoy_2_hod'
p1307
sg9
g1301
sg11
g1302
sg13
g108
sbg1
(g2
g3
Ntp1308
Rp1309
(dp1310
g7
S'cea.utilities.helpers.check_hoy'
p1311
sg9
g1098
sg11
g1099
sg13
g108
sbtp1312
a(g1
(g2
g3
Ntp1313
Rp1314
(dp1315
g7
S'cea.demand.ventilation_air_flows_simple.calc_air_mass_flow_mechanical_ventilation'
p1316
sg9
g1186
sg11
g1187
sg13
g130
sbg1
(g2
g3
Ntp1317
Rp1318
(dp1319
g7
S'cea.demand.control_ventilation_systems.has_mechanical_ventilation'
p1320
sg9
g1208
sg11
g1209
sg13
g141
sbtp1321
a(g1
(g2
g3
Ntp1322
Rp1323
(dp1324
g7
S'cea.demand.ventilation_air_flows_simple.calc_air_mass_flow_mechanical_ventilation'
p1325
sg9
g1186
sg11
g1187
sg13
g130
sbg1
(g2
g3
Ntp1326
Rp1327
(dp1328
g7
S'cea.demand.control_ventilation_systems.is_night_flushing_active'
p1329
sg9
g1219
sg11
g1220
sg13
g141
sbtp1330
a(g1
(g2
g3
Ntp1331
Rp1332
(dp1333
g7
S'cea.demand.thermal_loads.calc_thermal_loads'
p1334
sg9
g881
sg11
g882
sg13
g31
sbg1
(g2
g3
Ntp1335
Rp1336
(dp1337
g7
S'cea.demand.ventilation_air_flows_simple.calc_air_mass_flow_window_ventilation'
p1338
sg9
S'C:\\Users\\darthoma\\Documents\\GitHub\\CEAforArcGIS\\cea\\demand\\ventilation_air_flows_simple.py'
p1339
sg11
S'calc_air_mass_flow_window_ventilation'
p1340
sg13
g130
sbtp1341
a(g1
(g2
g3
Ntp1342
Rp1343
(dp1344
g7
S'cea.demand.ventilation_air_flows_simple.calc_air_mass_flow_window_ventilation'
p1345
sg9
g1339
sg11
g1340
sg13
g130
sbg1
(g2
g3
Ntp1346
Rp1347
(dp1348
g7
S'cea.demand.control_ventilation_systems.is_window_ventilation_active'
p1349
sg9
S'C:\\Users\\darthoma\\Documents\\GitHub\\CEAforArcGIS\\cea\\demand\\control_ventilation_systems.py'
p1350
sg11
S'is_window_ventilation_active'
p1351
sg13
g141
sbtp1352
a(g1
(g2
g3
Ntp1353
Rp1354
(dp1355
g7
S'cea.demand.control_ventilation_systems.is_window_ventilation_active'
p1356
sg9
g1350
sg11
g1351
sg13
g141
sbg1
(g2
g3
Ntp1357
Rp1358
(dp1359
g7
S'cea.demand.control_ventilation_systems.has_window_ventilation'
p1360
sg9
S'C:\\Users\\darthoma\\Documents\\GitHub\\CEAforArcGIS\\cea\\demand\\control_ventilation_systems.py'
p1361
sg11
S'has_window_ventilation'
p1362
sg13
g141
sbtp1363
a(g1
(g2
g3
Ntp1364
Rp1365
(dp1366
g7
S'cea.demand.thermal_loads.calc_thermal_loads'
p1367
sg9
g881
sg11
g882
sg13
g31
sbg1
(g2
g3
Ntp1368
Rp1369
(dp1370
g7
S'cea.demand.ventilation_air_flows_simple.calc_theta_ve_mech'
p1371
sg9
S'C:\\Users\\darthoma\\Documents\\GitHub\\CEAforArcGIS\\cea\\demand\\ventilation_air_flows_simple.py'
p1372
sg11
S'calc_theta_ve_mech'
p1373
sg13
g130
sbtp1374
a(g1
(g2
g3
Ntp1375
Rp1376
(dp1377
g7
S'cea.demand.ventilation_air_flows_simple.calc_theta_ve_mech'
p1378
sg9
g1372
sg11
g1373
sg13
g130
sbg1
(g2
g3
Ntp1379
Rp1380
(dp1381
g7
S'cea.demand.control_ventilation_systems.is_mechanical_ventilation_heat_recovery_active'
p1382
sg9
S'C:\\Users\\darthoma\\Documents\\GitHub\\CEAforArcGIS\\cea\\demand\\control_ventilation_systems.py'
p1383
sg11
S'is_mechanical_ventilation_heat_recovery_active'
p1384
sg13
g141
sbtp1385
a(g1
(g2
g3
Ntp1386
Rp1387
(dp1388
g7
S'cea.demand.control_ventilation_systems.is_mechanical_ventilation_heat_recovery_active'
p1389
sg9
g1383
sg11
g1384
sg13
g141
sbg1
(g2
g3
Ntp1390
Rp1391
(dp1392
g7
S'cea.demand.control_ventilation_systems.is_mechanical_ventilation_active'
p1393
sg9
g1197
sg11
g1198
sg13
g141
sbtp1394
a(g1
(g2
g3
Ntp1395
Rp1396
(dp1397
g7
S'cea.demand.thermal_loads.calc_thermal_loads'
p1398
sg9
g881
sg11
g882
sg13
g31
sbg1
(g2
g3
Ntp1399
Rp1400
(dp1401
g7
S'cea.demand.rc_model_crank_nicholson_procedure.calc_rc_model_demand_heating_cooling'
p1402
sg9
S'C:\\Users\\darthoma\\Documents\\GitHub\\CEAforArcGIS\\cea\\demand\\rc_model_crank_nicholson_procedure.py'
p1403
sg11
S'calc_rc_model_demand_heating_cooling'
p1404
sg13
g42
sbtp1405
a(g1
(g2
g3
Ntp1406
Rp1407
(dp1408
g7
S'cea.demand.rc_model_crank_nicholson_procedure.calc_rc_model_demand_heating_cooling'
p1409
sg9
g1403
sg11
g1404
sg13
g42
sbg1
(g2
g3
Ntp1410
Rp1411
(dp1412
g7
S'cea.demand.control_heating_cooling_systems.is_active_heating_system'
p1413
sg9
S'C:\\Users\\darthoma\\Documents\\GitHub\\CEAforArcGIS\\cea\\demand\\control_heating_cooling_systems.py'
p1414
sg11
S'is_active_heating_system'
p1415
sg13
g97
sbtp1416
a(g1
(g2
g3
Ntp1417
Rp1418
(dp1419
g7
S'cea.demand.control_heating_cooling_systems.is_active_heating_system'
p1420
sg9
g1414
sg11
g1415
sg13
g97
sbg1
(g2
g3
Ntp1421
Rp1422
(dp1423
g7
S'cea.demand.control_heating_cooling_systems.has_heating_system'
p1424
sg9
S'C:\\Users\\darthoma\\Documents\\GitHub\\CEAforArcGIS\\cea\\demand\\control_heating_cooling_systems.py'
p1425
sg11
S'has_heating_system'
p1426
sg13
g97
sbtp1427
a(g1
(g2
g3
Ntp1428
Rp1429
(dp1430
g7
S'cea.demand.control_heating_cooling_systems.is_active_heating_system'
p1431
sg9
g1414
sg11
g1415
sg13
g97
sbg1
(g2
g3
Ntp1432
Rp1433
(dp1434
g7
S'cea.utilities.helpers.is_heatingseason_hoy'
p1435
sg9
g1261
sg11
g1262
sg13
g108
sbtp1436
a(g1
(g2
g3
Ntp1437
Rp1438
(dp1439
g7
S'cea.demand.rc_model_crank_nicholson_procedure.calc_rc_model_demand_heating_cooling'
p1440
sg9
g1403
sg11
g1404
sg13
g42
sbg1
(g2
g3
Ntp1441
Rp1442
(dp1443
g7
S'cea.demand.control_heating_cooling_systems.is_active_cooling_system'
p1444
sg9
S'C:\\Users\\darthoma\\Documents\\GitHub\\CEAforArcGIS\\cea\\demand\\control_heating_cooling_systems.py'
p1445
sg11
S'is_active_cooling_system'
p1446
sg13
g97
sbtp1447
a(g1
(g2
g3
Ntp1448
Rp1449
(dp1450
g7
S'cea.demand.control_heating_cooling_systems.is_active_cooling_system'
p1451
sg9
g1445
sg11
g1446
sg13
g97
sbg1
(g2
g3
Ntp1452
Rp1453
(dp1454
g7
S'cea.demand.control_heating_cooling_systems.has_cooling_system'
p1455
sg9
S'C:\\Users\\darthoma\\Documents\\GitHub\\CEAforArcGIS\\cea\\demand\\control_heating_cooling_systems.py'
p1456
sg11
S'has_cooling_system'
p1457
sg13
g97
sbtp1458
a(g1
(g2
g3
Ntp1459
Rp1460
(dp1461
g7
S'cea.demand.control_heating_cooling_systems.is_active_cooling_system'
p1462
sg9
g1445
sg11
g1446
sg13
g97
sbg1
(g2
g3
Ntp1463
Rp1464
(dp1465
g7
S'cea.utilities.helpers.is_coolingseason_hoy'
p1466
sg9
g1241
sg11
g1242
sg13
g108
sbtp1467
a(g1
(g2
g3
Ntp1468
Rp1469
(dp1470
g7
S'cea.demand.control_heating_cooling_systems.is_active_cooling_system'
p1471
sg9
g1445
sg11
g1446
sg13
g97
sbg1
(g2
g3
Ntp1472
Rp1473
(dp1474
g7
S'cea.demand.rc_model_SIA.has_cooling_demand'
p1475
sg9
S'C:\\Users\\darthoma\\Documents\\GitHub\\CEAforArcGIS\\cea\\demand\\rc_model_SIA.py'
p1476
sg11
S'has_cooling_demand'
p1477
sg13
g86
sbtp1478
a(g1
(g2
g3
Ntp1479
Rp1480
(dp1481
g7
S'cea.demand.rc_model_SIA.has_cooling_demand'
p1482
sg9
g1476
sg11
g1477
sg13
g86
sbg1
(g2
g3
Ntp1483
Rp1484
(dp1485
g7
S'cea.demand.rc_model_SIA.calc_rc_model_temperatures_no_heating_cooling'
p1486
sg9
S'C:\\Users\\darthoma\\Documents\\GitHub\\CEAforArcGIS\\cea\\demand\\rc_model_SIA.py'
p1487
sg11
S'calc_rc_model_temperatures_no_heating_cooling'
p1488
sg13
g86
sbtp1489
a(g1
(g2
g3
Ntp1490
Rp1491
(dp1492
g7
S'cea.demand.rc_model_SIA.calc_rc_model_temperatures_no_heating_cooling'
p1493
sg9
g1487
sg11
g1488
sg13
g86
sbg1
(g2
g3
Ntp1494
Rp1495
(dp1496
g7
S'cea.demand.rc_model_SIA.calc_rc_model_temperatures'
p1497
sg9
S'C:\\Users\\darthoma\\Documents\\GitHub\\CEAforArcGIS\\cea\\demand\\rc_model_SIA.py'
p1498
sg11
S'calc_rc_model_temperatures'
p1499
sg13
g86
sbtp1500
a(g1
(g2
g3
Ntp1501
Rp1502
(dp1503
g7
S'cea.demand.rc_model_SIA.calc_rc_model_temperatures'
p1504
sg9
g1498
sg11
g1499
sg13
g86
sbg1
(g2
g3
Ntp1505
Rp1506
(dp1507
g7
S'cea.demand.rc_model_SIA.calc_theta_m'
p1508
sg9
S'C:\\Users\\darthoma\\Documents\\GitHub\\CEAforArcGIS\\cea\\demand\\rc_model_SIA.py'
p1509
sg11
S'calc_theta_m'
p1510
sg13
g86
sbtp1511
a(g1
(g2
g3
Ntp1512
Rp1513
(dp1514
g7
S'cea.demand.rc_model_SIA.calc_theta_m'
p1515
sg9
g1509
sg11
g1510
sg13
g86
sbg1
(g2
g3
Ntp1516
Rp1517
(dp1518
g7
S'cea.demand.rc_model_SIA.calc_theta_m_t'
p1519
sg9
S'C:\\Users\\darthoma\\Documents\\GitHub\\CEAforArcGIS\\cea\\demand\\rc_model_SIA.py'
p1520
sg11
S'calc_theta_m_t'
p1521
sg13
g86
sbtp1522
a(g1
(g2
g3
Ntp1523
Rp1524
(dp1525
g7
S'cea.demand.rc_model_SIA.calc_theta_m_t'
p1526
sg9
g1520
sg11
g1521
sg13
g86
sbg1
(g2
g3
Ntp1527
Rp1528
(dp1529
g7
S'cea.demand.rc_model_SIA.calc_h_3'
p1530
sg9
S'C:\\Users\\darthoma\\Documents\\GitHub\\CEAforArcGIS\\cea\\demand\\rc_model_SIA.py'
p1531
sg11
S'calc_h_3'
p1532
sg13
g86
sbtp1533
a(g1
(g2
g3
Ntp1534
Rp1535
(dp1536
g7
S'cea.demand.rc_model_SIA.calc_h_3'
p1537
sg9
g1531
sg11
g1532
sg13
g86
sbg1
(g2
g3
Ntp1538
Rp1539
(dp1540
g7
S'cea.demand.rc_model_SIA.calc_h_2'
p1541
sg9
S'C:\\Users\\darthoma\\Documents\\GitHub\\CEAforArcGIS\\cea\\demand\\rc_model_SIA.py'
p1542
sg11
S'calc_h_2'
p1543
sg13
g86
sbtp1544
a(g1
(g2
g3
Ntp1545
Rp1546
(dp1547
g7
S'cea.demand.rc_model_SIA.calc_h_2'
p1548
sg9
g1542
sg11
g1543
sg13
g86
sbg1
(g2
g3
Ntp1549
Rp1550
(dp1551
g7
S'cea.demand.rc_model_SIA.calc_h_1'
p1552
sg9
S'C:\\Users\\darthoma\\Documents\\GitHub\\CEAforArcGIS\\cea\\demand\\rc_model_SIA.py'
p1553
sg11
S'calc_h_1'
p1554
sg13
g86
sbtp1555
a(g1
(g2
g3
Ntp1556
Rp1557
(dp1558
g7
S'cea.demand.rc_model_SIA.calc_h_1'
p1559
sg9
g1553
sg11
g1554
sg13
g86
sbg1
(g2
g3
Ntp1560
Rp1561
(dp1562
g7
S'cea.demand.rc_model_SIA.calc_h_ea'
p1563
sg9
S'C:\\Users\\darthoma\\Documents\\GitHub\\CEAforArcGIS\\cea\\demand\\rc_model_SIA.py'
p1564
sg11
S'calc_h_ea'
p1565
sg13
g86
sbtp1566
a(g1
(g2
g3
Ntp1567
Rp1568
(dp1569
g7
S'cea.demand.rc_model_SIA.calc_h_1'
p1570
sg9
g1553
sg11
g1554
sg13
g86
sbg1
(g2
g3
Ntp1571
Rp1572
(dp1573
g7
S'cea.demand.rc_model_SIA.calc_h_ac'
p1574
sg9
S'C:\\Users\\darthoma\\Documents\\GitHub\\CEAforArcGIS\\cea\\demand\\rc_model_SIA.py'
p1575
sg11
S'calc_h_ac'
p1576
sg13
g86
sbtp1577
a(g1
(g2
g3
Ntp1578
Rp1579
(dp1580
g7
S'cea.demand.rc_model_SIA.calc_h_2'
p1581
sg9
g1542
sg11
g1543
sg13
g86
sbg1
(g2
g3
Ntp1582
Rp1583
(dp1584
g7
S'cea.demand.rc_model_SIA.calc_h_ec'
p1585
sg9
S'C:\\Users\\darthoma\\Documents\\GitHub\\CEAforArcGIS\\cea\\demand\\rc_model_SIA.py'
p1586
sg11
S'calc_h_ec'
p1587
sg13
g86
sbtp1588
a(g1
(g2
g3
Ntp1589
Rp1590
(dp1591
g7
S'cea.demand.rc_model_SIA.calc_h_3'
p1592
sg9
g1531
sg11
g1532
sg13
g86
sbg1
(g2
g3
Ntp1593
Rp1594
(dp1595
g7
S'cea.demand.rc_model_SIA.calc_h_mc'
p1596
sg9
S'C:\\Users\\darthoma\\Documents\\GitHub\\CEAforArcGIS\\cea\\demand\\rc_model_SIA.py'
p1597
sg11
S'calc_h_mc'
p1598
sg13
g86
sbtp1599
a(g1
(g2
g3
Ntp1600
Rp1601
(dp1602
g7
S'cea.demand.rc_model_SIA.calc_theta_m_t'
p1603
sg9
g1520
sg11
g1521
sg13
g86
sbg1
(g2
g3
Ntp1604
Rp1605
(dp1606
g7
S'cea.demand.rc_model_SIA.calc_h_em'
p1607
sg9
S'C:\\Users\\darthoma\\Documents\\GitHub\\CEAforArcGIS\\cea\\demand\\rc_model_SIA.py'
p1608
sg11
S'calc_h_em'
p1609
sg13
g86
sbtp1610
a(g1
(g2
g3
Ntp1611
Rp1612
(dp1613
g7
S'cea.demand.rc_model_SIA.calc_h_em'
p1614
sg9
g1608
sg11
g1609
sg13
g86
sbg1
(g2
g3
Ntp1615
Rp1616
(dp1617
g7
S'cea.demand.rc_model_SIA.calc_h_op_m'
p1618
sg9
S'C:\\Users\\darthoma\\Documents\\GitHub\\CEAforArcGIS\\cea\\demand\\rc_model_SIA.py'
p1619
sg11
S'calc_h_op_m'
p1620
sg13
g86
sbtp1621
a(g1
(g2
g3
Ntp1622
Rp1623
(dp1624
g7
S'cea.demand.rc_model_SIA.calc_h_em'
p1625
sg9
g1608
sg11
g1609
sg13
g86
sbg1
(g2
g3
Ntp1626
Rp1627
(dp1628
g7
S'cea.demand.rc_model_SIA.calc_h_mc'
p1629
sg9
g1597
sg11
g1598
sg13
g86
sbtp1630
a(g1
(g2
g3
Ntp1631
Rp1632
(dp1633
g7
S'cea.demand.rc_model_SIA.calc_theta_m_t'
p1634
sg9
g1520
sg11
g1521
sg13
g86
sbg1
(g2
g3
Ntp1635
Rp1636
(dp1637
g7
S'cea.demand.rc_model_SIA.calc_phi_m_tot'
p1638
sg9
S'C:\\Users\\darthoma\\Documents\\GitHub\\CEAforArcGIS\\cea\\demand\\rc_model_SIA.py'
p1639
sg11
S'calc_phi_m_tot'
p1640
sg13
g86
sbtp1641
a(g1
(g2
g3
Ntp1642
Rp1643
(dp1644
g7
S'cea.demand.rc_model_SIA.calc_phi_m_tot'
p1645
sg9
g1639
sg11
g1640
sg13
g86
sbg1
(g2
g3
Ntp1646
Rp1647
(dp1648
g7
S'cea.demand.rc_model_SIA.calc_phi_m'
p1649
sg9
S'C:\\Users\\darthoma\\Documents\\GitHub\\CEAforArcGIS\\cea\\demand\\rc_model_SIA.py'
p1650
sg11
S'calc_phi_m'
p1651
sg13
g86
sbtp1652
a(g1
(g2
g3
Ntp1653
Rp1654
(dp1655
g7
S'cea.demand.rc_model_SIA.calc_phi_m'
p1656
sg9
g1650
sg11
g1651
sg13
g86
sbg1
(g2
g3
Ntp1657
Rp1658
(dp1659
g7
S'cea.demand.rc_model_SIA.calc_f_im'
p1660
sg9
S'C:\\Users\\darthoma\\Documents\\GitHub\\CEAforArcGIS\\cea\\demand\\rc_model_SIA.py'
p1661
sg11
S'calc_f_im'
p1662
sg13
g86
sbtp1663
a(g1
(g2
g3
Ntp1664
Rp1665
(dp1666
g7
S'cea.demand.rc_model_SIA.calc_phi_m'
p1667
sg9
g1650
sg11
g1651
sg13
g86
sbg1
(g2
g3
Ntp1668
Rp1669
(dp1670
g7
S'cea.demand.rc_model_SIA.calc_f_sm'
p1671
sg9
S'C:\\Users\\darthoma\\Documents\\GitHub\\CEAforArcGIS\\cea\\demand\\rc_model_SIA.py'
p1672
sg11
S'calc_f_sm'
p1673
sg13
g86
sbtp1674
a(g1
(g2
g3
Ntp1675
Rp1676
(dp1677
g7
S'cea.demand.rc_model_SIA.calc_phi_m_tot'
p1678
sg9
g1639
sg11
g1640
sg13
g86
sbg1
(g2
g3
Ntp1679
Rp1680
(dp1681
g7
S'cea.demand.rc_model_SIA.calc_h_em'
p1682
sg9
g1608
sg11
g1609
sg13
g86
sbtp1683
a(g1
(g2
g3
Ntp1684
Rp1685
(dp1686
g7
S'cea.demand.rc_model_SIA.calc_phi_m_tot'
p1687
sg9
g1639
sg11
g1640
sg13
g86
sbg1
(g2
g3
Ntp1688
Rp1689
(dp1690
g7
S'cea.demand.rc_model_SIA.calc_theta_em'
p1691
sg9
S'C:\\Users\\darthoma\\Documents\\GitHub\\CEAforArcGIS\\cea\\demand\\rc_model_SIA.py'
p1692
sg11
S'calc_theta_em'
p1693
sg13
g86
sbtp1694
a(g1
(g2
g3
Ntp1695
Rp1696
(dp1697
g7
S'cea.demand.rc_model_SIA.calc_phi_m_tot'
p1698
sg9
g1639
sg11
g1640
sg13
g86
sbg1
(g2
g3
Ntp1699
Rp1700
(dp1701
g7
S'cea.demand.rc_model_SIA.calc_h_3'
p1702
sg9
g1531
sg11
g1532
sg13
g86
sbtp1703
a(g1
(g2
g3
Ntp1704
Rp1705
(dp1706
g7
S'cea.demand.rc_model_SIA.calc_phi_m_tot'
p1707
sg9
g1639
sg11
g1640
sg13
g86
sbg1
(g2
g3
Ntp1708
Rp1709
(dp1710
g7
S'cea.demand.rc_model_SIA.calc_phi_c'
p1711
sg9
S'C:\\Users\\darthoma\\Documents\\GitHub\\CEAforArcGIS\\cea\\demand\\rc_model_SIA.py'
p1712
sg11
S'calc_phi_c'
p1713
sg13
g86
sbtp1714
a(g1
(g2
g3
Ntp1715
Rp1716
(dp1717
g7
S'cea.demand.rc_model_SIA.calc_phi_c'
p1718
sg9
g1712
sg11
g1713
sg13
g86
sbg1
(g2
g3
Ntp1719
Rp1720
(dp1721
g7
S'cea.demand.rc_model_SIA.calc_f_ic'
p1722
sg9
S'C:\\Users\\darthoma\\Documents\\GitHub\\CEAforArcGIS\\cea\\demand\\rc_model_SIA.py'
p1723
sg11
S'calc_f_ic'
p1724
sg13
g86
sbtp1725
a(g1
(g2
g3
Ntp1726
Rp1727
(dp1728
g7
S'cea.demand.rc_model_SIA.calc_f_ic'
p1729
sg9
g1723
sg11
g1724
sg13
g86
sbg1
(g2
g3
Ntp1730
Rp1731
(dp1732
g7
S'cea.demand.rc_model_SIA.calc_h_ec'
p1733
sg9
g1586
sg11
g1587
sg13
g86
sbtp1734
a(g1
(g2
g3
Ntp1735
Rp1736
(dp1737
g7
S'cea.demand.rc_model_SIA.calc_phi_c'
p1738
sg9
g1712
sg11
g1713
sg13
g86
sbg1
(g2
g3
Ntp1739
Rp1740
(dp1741
g7
S'cea.demand.rc_model_SIA.calc_f_sc'
p1742
sg9
S'C:\\Users\\darthoma\\Documents\\GitHub\\CEAforArcGIS\\cea\\demand\\rc_model_SIA.py'
p1743
sg11
S'calc_f_sc'
p1744
sg13
g86
sbtp1745
a(g1
(g2
g3
Ntp1746
Rp1747
(dp1748
g7
S'cea.demand.rc_model_SIA.calc_phi_m_tot'
p1749
sg9
g1639
sg11
g1640
sg13
g86
sbg1
(g2
g3
Ntp1750
Rp1751
(dp1752
g7
S'cea.demand.rc_model_SIA.calc_h_ec'
p1753
sg9
g1586
sg11
g1587
sg13
g86
sbtp1754
a(g1
(g2
g3
Ntp1755
Rp1756
(dp1757
g7
S'cea.demand.rc_model_SIA.calc_phi_m_tot'
p1758
sg9
g1639
sg11
g1640
sg13
g86
sbg1
(g2
g3
Ntp1759
Rp1760
(dp1761
g7
S'cea.demand.rc_model_SIA.calc_theta_ec'
p1762
sg9
S'C:\\Users\\darthoma\\Documents\\GitHub\\CEAforArcGIS\\cea\\demand\\rc_model_SIA.py'
p1763
sg11
S'calc_theta_ec'
p1764
sg13
g86
sbtp1765
a(g1
(g2
g3
Ntp1766
Rp1767
(dp1768
g7
S'cea.demand.rc_model_SIA.calc_phi_m_tot'
p1769
sg9
g1639
sg11
g1640
sg13
g86
sbg1
(g2
g3
Ntp1770
Rp1771
(dp1772
g7
S'cea.demand.rc_model_SIA.calc_h_1'
p1773
sg9
g1553
sg11
g1554
sg13
g86
sbtp1774
a(g1
(g2
g3
Ntp1775
Rp1776
(dp1777
g7
S'cea.demand.rc_model_SIA.calc_phi_m_tot'
p1778
sg9
g1639
sg11
g1640
sg13
g86
sbg1
(g2
g3
Ntp1779
Rp1780
(dp1781
g7
S'cea.demand.rc_model_SIA.calc_phi_a'
p1782
sg9
S'C:\\Users\\darthoma\\Documents\\GitHub\\CEAforArcGIS\\cea\\demand\\rc_model_SIA.py'
p1783
sg11
S'calc_phi_a'
p1784
sg13
g86
sbtp1785
a(g1
(g2
g3
Ntp1786
Rp1787
(dp1788
g7
S'cea.demand.rc_model_SIA.calc_phi_m_tot'
p1789
sg9
g1639
sg11
g1640
sg13
g86
sbg1
(g2
g3
Ntp1790
Rp1791
(dp1792
g7
S'cea.demand.rc_model_SIA.calc_h_ea'
p1793
sg9
g1564
sg11
g1565
sg13
g86
sbtp1794
a(g1
(g2
g3
Ntp1795
Rp1796
(dp1797
g7
S'cea.demand.rc_model_SIA.calc_phi_m_tot'
p1798
sg9
g1639
sg11
g1640
sg13
g86
sbg1
(g2
g3
Ntp1799
Rp1800
(dp1801
g7
S'cea.demand.rc_model_SIA.calc_theta_ea'
p1802
sg9
S'C:\\Users\\darthoma\\Documents\\GitHub\\CEAforArcGIS\\cea\\demand\\rc_model_SIA.py'
p1803
sg11
S'calc_theta_ea'
p1804
sg13
g86
sbtp1805
a(g1
(g2
g3
Ntp1806
Rp1807
(dp1808
g7
S'cea.demand.rc_model_SIA.calc_phi_m_tot'
p1809
sg9
g1639
sg11
g1640
sg13
g86
sbg1
(g2
g3
Ntp1810
Rp1811
(dp1812
g7
S'cea.demand.rc_model_SIA.calc_h_2'
p1813
sg9
g1542
sg11
g1543
sg13
g86
sbtp1814
a(g1
(g2
g3
Ntp1815
Rp1816
(dp1817
g7
S'cea.demand.rc_model_SIA.calc_rc_model_temperatures'
p1818
sg9
g1498
sg11
g1499
sg13
g86
sbg1
(g2
g3
Ntp1819
Rp1820
(dp1821
g7
S'cea.demand.rc_model_SIA.calc_theta_c'
p1822
sg9
S'C:\\Users\\darthoma\\Documents\\GitHub\\CEAforArcGIS\\cea\\demand\\rc_model_SIA.py'
p1823
sg11
S'calc_theta_c'
p1824
sg13
g86
sbtp1825
a(g1
(g2
g3
Ntp1826
Rp1827
(dp1828
g7
S'cea.demand.rc_model_SIA.calc_theta_c'
p1829
sg9
g1823
sg11
g1824
sg13
g86
sbg1
(g2
g3
Ntp1830
Rp1831
(dp1832
g7
S'cea.demand.rc_model_SIA.calc_h_mc'
p1833
sg9
g1597
sg11
g1598
sg13
g86
sbtp1834
a(g1
(g2
g3
Ntp1835
Rp1836
(dp1837
g7
S'cea.demand.rc_model_SIA.calc_theta_c'
p1838
sg9
g1823
sg11
g1824
sg13
g86
sbg1
(g2
g3
Ntp1839
Rp1840
(dp1841
g7
S'cea.demand.rc_model_SIA.calc_theta_m'
p1842
sg9
g1509
sg11
g1510
sg13
g86
sbtp1843
a(g1
(g2
g3
Ntp1844
Rp1845
(dp1846
g7
S'cea.demand.rc_model_SIA.calc_theta_c'
p1847
sg9
g1823
sg11
g1824
sg13
g86
sbg1
(g2
g3
Ntp1848
Rp1849
(dp1850
g7
S'cea.demand.rc_model_SIA.calc_phi_c'
p1851
sg9
g1712
sg11
g1713
sg13
g86
sbtp1852
a(g1
(g2
g3
Ntp1853
Rp1854
(dp1855
g7
S'cea.demand.rc_model_SIA.calc_theta_c'
p1856
sg9
g1823
sg11
g1824
sg13
g86
sbg1
(g2
g3
Ntp1857
Rp1858
(dp1859
g7
S'cea.demand.rc_model_SIA.calc_h_ec'
p1860
sg9
g1586
sg11
g1587
sg13
g86
sbtp1861
a(g1
(g2
g3
Ntp1862
Rp1863
(dp1864
g7
S'cea.demand.rc_model_SIA.calc_theta_c'
p1865
sg9
g1823
sg11
g1824
sg13
g86
sbg1
(g2
g3
Ntp1866
Rp1867
(dp1868
g7
S'cea.demand.rc_model_SIA.calc_theta_ec'
p1869
sg9
g1763
sg11
g1764
sg13
g86
sbtp1870
a(g1
(g2
g3
Ntp1871
Rp1872
(dp1873
g7
S'cea.demand.rc_model_SIA.calc_theta_c'
p1874
sg9
g1823
sg11
g1824
sg13
g86
sbg1
(g2
g3
Ntp1875
Rp1876
(dp1877
g7
S'cea.demand.rc_model_SIA.calc_h_1'
p1878
sg9
g1553
sg11
g1554
sg13
g86
sbtp1879
a(g1
(g2
g3
Ntp1880
Rp1881
(dp1882
g7
S'cea.demand.rc_model_SIA.calc_theta_c'
p1883
sg9
g1823
sg11
g1824
sg13
g86
sbg1
(g2
g3
Ntp1884
Rp1885
(dp1886
g7
S'cea.demand.rc_model_SIA.calc_phi_a'
p1887
sg9
g1783
sg11
g1784
sg13
g86
sbtp1888
a(g1
(g2
g3
Ntp1889
Rp1890
(dp1891
g7
S'cea.demand.rc_model_SIA.calc_theta_c'
p1892
sg9
g1823
sg11
g1824
sg13
g86
sbg1
(g2
g3
Ntp1893
Rp1894
(dp1895
g7
S'cea.demand.rc_model_SIA.calc_h_ea'
p1896
sg9
g1564
sg11
g1565
sg13
g86
sbtp1897
a(g1
(g2
g3
Ntp1898
Rp1899
(dp1900
g7
S'cea.demand.rc_model_SIA.calc_theta_c'
p1901
sg9
g1823
sg11
g1824
sg13
g86
sbg1
(g2
g3
Ntp1902
Rp1903
(dp1904
g7
S'cea.demand.rc_model_SIA.calc_theta_ea'
p1905
sg9
g1803
sg11
g1804
sg13
g86
sbtp1906
a(g1
(g2
g3
Ntp1907
Rp1908
(dp1909
g7
S'cea.demand.rc_model_SIA.calc_rc_model_temperatures'
p1910
sg9
g1498
sg11
g1499
sg13
g86
sbg1
(g2
g3
Ntp1911
Rp1912
(dp1913
g7
S'cea.demand.rc_model_SIA.calc_theta_a'
p1914
sg9
S'C:\\Users\\darthoma\\Documents\\GitHub\\CEAforArcGIS\\cea\\demand\\rc_model_SIA.py'
p1915
sg11
S'calc_theta_a'
p1916
sg13
g86
sbtp1917
a(g1
(g2
g3
Ntp1918
Rp1919
(dp1920
g7
S'cea.demand.rc_model_SIA.calc_theta_a'
p1921
sg9
g1915
sg11
g1916
sg13
g86
sbg1
(g2
g3
Ntp1922
Rp1923
(dp1924
g7
S'cea.demand.rc_model_SIA.calc_h_ac'
p1925
sg9
g1575
sg11
g1576
sg13
g86
sbtp1926
a(g1
(g2
g3
Ntp1927
Rp1928
(dp1929
g7
S'cea.demand.rc_model_SIA.calc_theta_a'
p1930
sg9
g1915
sg11
g1916
sg13
g86
sbg1
(g2
g3
Ntp1931
Rp1932
(dp1933
g7
S'cea.demand.rc_model_SIA.calc_theta_c'
p1934
sg9
g1823
sg11
g1824
sg13
g86
sbtp1935
a(g1
(g2
g3
Ntp1936
Rp1937
(dp1938
g7
S'cea.demand.rc_model_SIA.calc_theta_a'
p1939
sg9
g1915
sg11
g1916
sg13
g86
sbg1
(g2
g3
Ntp1940
Rp1941
(dp1942
g7
S'cea.demand.rc_model_SIA.calc_h_ea'
p1943
sg9
g1564
sg11
g1565
sg13
g86
sbtp1944
a(g1
(g2
g3
Ntp1945
Rp1946
(dp1947
g7
S'cea.demand.rc_model_SIA.calc_theta_a'
p1948
sg9
g1915
sg11
g1916
sg13
g86
sbg1
(g2
g3
Ntp1949
Rp1950
(dp1951
g7
S'cea.demand.rc_model_SIA.calc_theta_ea'
p1952
sg9
g1803
sg11
g1804
sg13
g86
sbtp1953
a(g1
(g2
g3
Ntp1954
Rp1955
(dp1956
g7
S'cea.demand.rc_model_SIA.calc_theta_a'
p1957
sg9
g1915
sg11
g1916
sg13
g86
sbg1
(g2
g3
Ntp1958
Rp1959
(dp1960
g7
S'cea.demand.rc_model_SIA.calc_phi_a'
p1961
sg9
g1783
sg11
g1784
sg13
g86
sbtp1962
a(g1
(g2
g3
Ntp1963
Rp1964
(dp1965
g7
S'cea.demand.rc_model_SIA.calc_rc_model_temperatures'
p1966
sg9
g1498
sg11
g1499
sg13
g86
sbg1
(g2
g3
Ntp1967
Rp1968
(dp1969
g7
S'cea.demand.rc_model_SIA.calc_theta_o'
p1970
sg9
S'C:\\Users\\darthoma\\Documents\\GitHub\\CEAforArcGIS\\cea\\demand\\rc_model_SIA.py'
p1971
sg11
S'calc_theta_o'
p1972
sg13
g86
sbtp1973
a(g1
(g2
g3
Ntp1974
Rp1975
(dp1976
g7
S'cea.demand.rc_model_SIA.calc_theta_o'
p1977
sg9
g1971
sg11
g1972
sg13
g86
sbg1
(g2
g3
Ntp1978
Rp1979
(dp1980
g7
S'cea.demand.rc_model_SIA.calc_theta_a'
p1981
sg9
g1915
sg11
g1916
sg13
g86
sbtp1982
a(g1
(g2
g3
Ntp1983
Rp1984
(dp1985
g7
S'cea.demand.rc_model_SIA.calc_theta_o'
p1986
sg9
g1971
sg11
g1972
sg13
g86
sbg1
(g2
g3
Ntp1987
Rp1988
(dp1989
g7
S'cea.demand.rc_model_SIA.calc_theta_c'
p1990
sg9
g1823
sg11
g1824
sg13
g86
sbtp1991
a(g1
(g2
g3
Ntp1992
Rp1993
(dp1994
g7
S'cea.demand.rc_model_crank_nicholson_procedure.calc_rc_model_demand_heating_cooling'
p1995
sg9
g1403
sg11
g1404
sg13
g42
sbg1
(g2
g3
Ntp1996
Rp1997
(dp1998
g7
S'cea.demand.rc_model_SIA.calc_rc_model_temperatures_no_heating_cooling'
p1999
sg9
g1487
sg11
g1488
sg13
g86
sbtp2000
a(g1
(g2
g3
Ntp2001
Rp2002
(dp2003
g7
S'cea.demand.rc_model_crank_nicholson_procedure.calc_rc_model_demand_heating_cooling'
p2004
sg9
g1403
sg11
g1404
sg13
g42
sbg1
(g2
g3
Ntp2005
Rp2006
(dp2007
g7
S'cea.demand.rc_model_crank_nicholson_procedure.update_tsd_no_cooling'
p2008
sg9
S'C:\\Users\\darthoma\\Documents\\GitHub\\CEAforArcGIS\\cea\\demand\\rc_model_crank_nicholson_procedure.py'
p2009
sg11
S'update_tsd_no_cooling'
p2010
sg13
g42
sbtp2011
a(g1
(g2
g3
Ntp2012
Rp2013
(dp2014
g7
S'cea.demand.rc_model_crank_nicholson_procedure.calc_rc_model_demand_heating_cooling'
p2015
sg9
g1403
sg11
g1404
sg13
g42
sbg1
(g2
g3
Ntp2016
Rp2017
(dp2018
g7
S'cea.demand.rc_model_crank_nicholson_procedure.update_tsd_no_heating'
p2019
sg9
S'C:\\Users\\darthoma\\Documents\\GitHub\\CEAforArcGIS\\cea\\demand\\rc_model_crank_nicholson_procedure.py'
p2020
sg11
S'update_tsd_no_heating'
p2021
sg13
g42
sbtp2022
a(g1
(g2
g3
Ntp2023
Rp2024
(dp2025
g7
S'cea.demand.control_ventilation_systems.is_mechanical_ventilation_heat_recovery_active'
p2026
sg9
g1383
sg11
g1384
sg13
g141
sbg1
(g2
g3
Ntp2027
Rp2028
(dp2029
g7
S'cea.demand.control_ventilation_systems.has_mechanical_ventilation_heat_recovery'
p2030
sg9
S'C:\\Users\\darthoma\\Documents\\GitHub\\CEAforArcGIS\\cea\\demand\\control_ventilation_systems.py'
p2031
sg11
S'has_mechanical_ventilation_heat_recovery'
p2032
sg13
g141
sbtp2033
a(g1
(g2
g3
Ntp2034
Rp2035
(dp2036
g7
S'cea.demand.rc_model_crank_nicholson_procedure.calc_rc_model_demand_heating_cooling'
p2037
sg9
g1403
sg11
g1404
sg13
g42
sbg1
(g2
g3
Ntp2038
Rp2039
(dp2040
g7
S'cea.demand.rc_model_SIA.calc_rc_model_temperatures_cooling'
p2041
sg9
S'C:\\Users\\darthoma\\Documents\\GitHub\\CEAforArcGIS\\cea\\demand\\rc_model_SIA.py'
p2042
sg11
S'calc_rc_model_temperatures_cooling'
p2043
sg13
g86
sbtp2044
a(g1
(g2
g3
Ntp2045
Rp2046
(dp2047
g7
S'cea.demand.rc_model_SIA.calc_rc_model_temperatures_cooling'
p2048
sg9
g2042
sg11
g2043
sg13
g86
sbg1
(g2
g3
Ntp2049
Rp2050
(dp2051
g7
S'cea.demand.rc_model_SIA.lookup_f_hc_cv_cooling'
p2052
sg9
S'C:\\Users\\darthoma\\Documents\\GitHub\\CEAforArcGIS\\cea\\demand\\rc_model_SIA.py'
p2053
sg11
S'lookup_f_hc_cv_cooling'
p2054
sg13
g86
sbtp2055
a(g1
(g2
g3
Ntp2056
Rp2057
(dp2058
g7
S'cea.demand.rc_model_SIA.calc_rc_model_temperatures_cooling'
p2059
sg9
g2042
sg11
g2043
sg13
g86
sbg1
(g2
g3
Ntp2060
Rp2061
(dp2062
g7
S'cea.demand.rc_model_SIA.calc_phi_hc_cv'
p2063
sg9
S'C:\\Users\\darthoma\\Documents\\GitHub\\CEAforArcGIS\\cea\\demand\\rc_model_SIA.py'
p2064
sg11
S'calc_phi_hc_cv'
p2065
sg13
g86
sbtp2066
a(g1
(g2
g3
Ntp2067
Rp2068
(dp2069
g7
S'cea.demand.rc_model_SIA.calc_rc_model_temperatures_cooling'
p2070
sg9
g2042
sg11
g2043
sg13
g86
sbg1
(g2
g3
Ntp2071
Rp2072
(dp2073
g7
S'cea.demand.rc_model_SIA.calc_phi_hc_r'
p2074
sg9
S'C:\\Users\\darthoma\\Documents\\GitHub\\CEAforArcGIS\\cea\\demand\\rc_model_SIA.py'
p2075
sg11
S'calc_phi_hc_r'
p2076
sg13
g86
sbtp2077
a(g1
(g2
g3
Ntp2078
Rp2079
(dp2080
g7
S'cea.demand.rc_model_SIA.calc_rc_model_temperatures_cooling'
p2081
sg9
g2042
sg11
g2043
sg13
g86
sbg1
(g2
g3
Ntp2082
Rp2083
(dp2084
g7
S'cea.demand.rc_model_SIA.calc_rc_model_temperatures'
p2085
sg9
g1498
sg11
g1499
sg13
g86
sbtp2086
a(g1
(g2
g3
Ntp2087
Rp2088
(dp2089
g7
S'cea.demand.rc_model_crank_nicholson_procedure.calc_rc_model_demand_heating_cooling'
p2090
sg9
g1403
sg11
g1404
sg13
g42
sbg1
(g2
g3
Ntp2091
Rp2092
(dp2093
g7
S'cea.demand.rc_model_SIA.calc_rc_model_temperatures_heating'
p2094
sg9
S'C:\\Users\\darthoma\\Documents\\GitHub\\CEAforArcGIS\\cea\\demand\\rc_model_SIA.py'
p2095
sg11
S'calc_rc_model_temperatures_heating'
p2096
sg13
g86
sbtp2097
a(g1
(g2
g3
Ntp2098
Rp2099
(dp2100
g7
S'cea.demand.rc_model_SIA.calc_rc_model_temperatures_heating'
p2101
sg9
g2095
sg11
g2096
sg13
g86
sbg1
(g2
g3
Ntp2102
Rp2103
(dp2104
g7
S'cea.demand.rc_model_SIA.lookup_f_hc_cv_heating'
p2105
sg9
S'C:\\Users\\darthoma\\Documents\\GitHub\\CEAforArcGIS\\cea\\demand\\rc_model_SIA.py'
p2106
sg11
S'lookup_f_hc_cv_heating'
p2107
sg13
g86
sbtp2108
a(g1
(g2
g3
Ntp2109
Rp2110
(dp2111
g7
S'cea.demand.rc_model_SIA.calc_rc_model_temperatures_heating'
p2112
sg9
g2095
sg11
g2096
sg13
g86
sbg1
(g2
g3
Ntp2113
Rp2114
(dp2115
g7
S'cea.demand.rc_model_SIA.calc_phi_hc_cv'
p2116
sg9
g2064
sg11
g2065
sg13
g86
sbtp2117
a(g1
(g2
g3
Ntp2118
Rp2119
(dp2120
g7
S'cea.demand.rc_model_SIA.calc_rc_model_temperatures_heating'
p2121
sg9
g2095
sg11
g2096
sg13
g86
sbg1
(g2
g3
Ntp2122
Rp2123
(dp2124
g7
S'cea.demand.rc_model_SIA.calc_phi_hc_r'
p2125
sg9
g2075
sg11
g2076
sg13
g86
sbtp2126
a(g1
(g2
g3
Ntp2127
Rp2128
(dp2129
g7
S'cea.demand.rc_model_SIA.calc_rc_model_temperatures_heating'
p2130
sg9
g2095
sg11
g2096
sg13
g86
sbg1
(g2
g3
Ntp2131
Rp2132
(dp2133
g7
S'cea.demand.rc_model_SIA.calc_rc_model_temperatures'
p2134
sg9
g1498
sg11
g1499
sg13
g86
sbtp2135
a(g1
(g2
g3
Ntp2136
Rp2137
(dp2138
g7
S'cea.demand.rc_model_crank_nicholson_procedure.calc_rc_model_demand_heating_cooling'
p2139
sg9
g1403
sg11
g1404
sg13
g42
sbg1
(g2
g3
Ntp2140
Rp2141
(dp2142
g7
S'cea.demand.control_heating_cooling_systems.cooling_system_is_ac'
p2143
sg9
S'C:\\Users\\darthoma\\Documents\\GitHub\\CEAforArcGIS\\cea\\demand\\control_heating_cooling_systems.py'
p2144
sg11
S'cooling_system_is_ac'
p2145
sg13
g97
sbtp2146
a(g1
(g2
g3
Ntp2147
Rp2148
(dp2149
g7
S'cea.demand.rc_model_crank_nicholson_procedure.calc_rc_model_demand_heating_cooling'
p2150
sg9
g1403
sg11
g1404
sg13
g42
sbg1
(g2
g3
Ntp2151
Rp2152
(dp2153
g7
S'cea.demand.airconditioning_model.calc_hvac_cooling'
p2154
sg9
S'C:\\Users\\darthoma\\Documents\\GitHub\\CEAforArcGIS\\cea\\demand\\airconditioning_model.py'
p2155
sg11
S'calc_hvac_cooling'
p2156
sg13
g53
sbtp2157
a(g1
(g2
g3
Ntp2158
Rp2159
(dp2160
g7
S'cea.demand.airconditioning_model.calc_hvac_cooling'
p2161
sg9
g2155
sg11
g2156
sg13
g53
sbg1
(g2
g3
Ntp2162
Rp2163
(dp2164
g7
S'cea.demand.airconditioning_model.calc_hvac_sensible_cooling_ventilation_air'
p2165
sg9
S'C:\\Users\\darthoma\\Documents\\GitHub\\CEAforArcGIS\\cea\\demand\\airconditioning_model.py'
p2166
sg11
S'calc_hvac_sensible_cooling_ventilation_air'
p2167
sg13
g53
sbtp2168
a(g1
(g2
g3
Ntp2169
Rp2170
(dp2171
g7
S'cea.demand.airconditioning_model.calc_hvac_sensible_cooling_ventilation_air'
p2172
sg9
g2166
sg11
g2167
sg13
g53
sbg1
(g2
g3
Ntp2173
Rp2174
(dp2175
g7
S'cea.demand.airconditioning_model.calc_hex'
p2176
sg9
S'C:\\Users\\darthoma\\Documents\\GitHub\\CEAforArcGIS\\cea\\demand\\airconditioning_model.py'
p2177
sg11
S'calc_hex'
p2178
sg13
g53
sbtp2179
a(g1
(g2
g3
Ntp2180
Rp2181
(dp2182
g7
S'cea.demand.airconditioning_model.calc_hex'
p2183
sg9
g2177
sg11
g2178
sg13
g53
sbg1
(g2
g3
Ntp2184
Rp2185
(dp2186
g7
S'cea.utilities.physics.calc_w'
p2187
sg9
S'C:\\Users\\darthoma\\Documents\\GitHub\\CEAforArcGIS\\cea\\utilities\\physics.py'
p2188
sg11
S'calc_w'
p2189
sg13
g75
sbtp2190
a(g1
(g2
g3
Ntp2191
Rp2192
(dp2193
g7
S'cea.demand.airconditioning_model.calc_hvac_sensible_cooling_ventilation_air'
p2194
sg9
g2166
sg11
g2167
sg13
g53
sbg1
(g2
g3
Ntp2195
Rp2196
(dp2197
g7
S'cea.utilities.physics.calc_h'
p2198
sg9
S'C:\\Users\\darthoma\\Documents\\GitHub\\CEAforArcGIS\\cea\\utilities\\physics.py'
p2199
sg11
S'calc_h'
p2200
sg13
g75
sbtp2201
a(g1
(g2
g3
Ntp2202
Rp2203
(dp2204
g7
S'cea.demand.airconditioning_model.calc_hvac_cooling'
p2205
sg9
g2155
sg11
g2156
sg13
g53
sbg1
(g2
g3
Ntp2206
Rp2207
(dp2208
g7
S'cea.demand.airconditioning_model.calc_hex'
p2209
sg9
g2177
sg11
g2178
sg13
g53
sbtp2210
a(g1
(g2
g3
Ntp2211
Rp2212
(dp2213
g7
S'cea.demand.airconditioning_model.calc_hvac_cooling'
p2214
sg9
g2155
sg11
g2156
sg13
g53
sbg1
(g2
g3
Ntp2215
Rp2216
(dp2217
g7
S'cea.demand.airconditioning_model.calc_w3_cooling_case'
p2218
sg9
S'C:\\Users\\darthoma\\Documents\\GitHub\\CEAforArcGIS\\cea\\demand\\airconditioning_model.py'
p2219
sg11
S'calc_w3_cooling_case'
p2220
sg13
g53
sbtp2221
a(g1
(g2
g3
Ntp2222
Rp2223
(dp2224
g7
S'cea.demand.airconditioning_model.calc_w3_cooling_case'
p2225
sg9
g2219
sg11
g2220
sg13
g53
sbg1
(g2
g3
Ntp2226
Rp2227
(dp2228
g7
S'cea.utilities.physics.calc_w'
p2229
sg9
g2188
sg11
g2189
sg13
g75
sbtp2230
a(g1
(g2
g3
Ntp2231
Rp2232
(dp2233
g7
S'cea.demand.airconditioning_model.calc_hvac_cooling'
p2234
sg9
g2155
sg11
g2156
sg13
g53
sbg1
(g2
g3
Ntp2235
Rp2236
(dp2237
g7
S'cea.utilities.physics.calc_h'
p2238
sg9
g2199
sg11
g2200
sg13
g75
sbtp2239
a(g1
(g2
g3
Ntp2240
Rp2241
(dp2242
g7
S'cea.demand.rc_model_crank_nicholson_procedure.calc_rc_model_demand_heating_cooling'
p2243
sg9
g1403
sg11
g1404
sg13
g42
sbg1
(g2
g3
Ntp2244
Rp2245
(dp2246
g7
S'cea.demand.space_emission_systems.calc_q_em_ls_cooling'
p2247
sg9
S'C:\\Users\\darthoma\\Documents\\GitHub\\CEAforArcGIS\\cea\\demand\\space_emission_systems.py'
p2248
sg11
S'calc_q_em_ls_cooling'
p2249
sg13
g119
sbtp2250
a(g1
(g2
g3
Ntp2251
Rp2252
(dp2253
g7
S'cea.demand.space_emission_systems.calc_q_em_ls_cooling'
p2254
sg9
g2248
sg11
g2249
sg13
g119
sbg1
(g2
g3
Ntp2255
Rp2256
(dp2257
g7
S'cea.demand.space_emission_systems.calc_delta_theta_int_inc_cooling'
p2258
sg9
S'C:\\Users\\darthoma\\Documents\\GitHub\\CEAforArcGIS\\cea\\demand\\space_emission_systems.py'
p2259
sg11
S'calc_delta_theta_int_inc_cooling'
p2260
sg13
g119
sbtp2261
a(g1
(g2
g3
Ntp2262
Rp2263
(dp2264
g7
S'cea.demand.space_emission_systems.calc_q_em_ls_cooling'
p2265
sg9
g2248
sg11
g2249
sg13
g119
sbg1
(g2
g3
Ntp2266
Rp2267
(dp2268
g7
S'cea.demand.space_emission_systems.calc_theta_int_inc'
p2269
sg9
S'C:\\Users\\darthoma\\Documents\\GitHub\\CEAforArcGIS\\cea\\demand\\space_emission_systems.py'
p2270
sg11
S'calc_theta_int_inc'
p2271
sg13
g119
sbtp2272
a(g1
(g2
g3
Ntp2273
Rp2274
(dp2275
g7
S'cea.demand.space_emission_systems.calc_q_em_ls_cooling'
p2276
sg9
g2248
sg11
g2249
sg13
g119
sbg1
(g2
g3
Ntp2277
Rp2278
(dp2279
g7
S'cea.demand.space_emission_systems.calc_theta_e_comb_cooling'
p2280
sg9
S'C:\\Users\\darthoma\\Documents\\GitHub\\CEAforArcGIS\\cea\\demand\\space_emission_systems.py'
p2281
sg11
S'calc_theta_e_comb_cooling'
p2282
sg13
g119
sbtp2283
a(g1
(g2
g3
Ntp2284
Rp2285
(dp2286
g7
S'cea.demand.space_emission_systems.calc_theta_e_comb_cooling'
p2287
sg9
g2281
sg11
g2282
sg13
g119
sbg1
(g2
g3
Ntp2288
Rp2289
(dp2290
g7
S'cea.demand.space_emission_systems.get_delta_theta_e_sol'
p2291
sg9
S'C:\\Users\\darthoma\\Documents\\GitHub\\CEAforArcGIS\\cea\\demand\\space_emission_systems.py'
p2292
sg11
S'get_delta_theta_e_sol'
p2293
sg13
g119
sbtp2294
a(g1
(g2
g3
Ntp2295
Rp2296
(dp2297
g7
S'cea.demand.space_emission_systems.calc_q_em_ls_cooling'
p2298
sg9
g2248
sg11
g2249
sg13
g119
sbg1
(g2
g3
Ntp2299
Rp2300
(dp2301
g7
S'cea.demand.space_emission_systems.calc_q_em_ls'
p2302
sg9
S'C:\\Users\\darthoma\\Documents\\GitHub\\CEAforArcGIS\\cea\\demand\\space_emission_systems.py'
p2303
sg11
S'calc_q_em_ls'
p2304
sg13
g119
sbtp2305
a(g1
(g2
g3
Ntp2306
Rp2307
(dp2308
g7
S'cea.demand.control_heating_cooling_systems.is_active_heating_system'
p2309
sg9
g1414
sg11
g1415
sg13
g97
sbg1
(g2
g3
Ntp2310
Rp2311
(dp2312
g7
S'cea.demand.rc_model_SIA.has_heating_demand'
p2313
sg9
S'C:\\Users\\darthoma\\Documents\\GitHub\\CEAforArcGIS\\cea\\demand\\rc_model_SIA.py'
p2314
sg11
S'has_heating_demand'
p2315
sg13
g86
sbtp2316
a(g1
(g2
g3
Ntp2317
Rp2318
(dp2319
g7
S'cea.demand.rc_model_SIA.has_heating_demand'
p2320
sg9
g2314
sg11
g2315
sg13
g86
sbg1
(g2
g3
Ntp2321
Rp2322
(dp2323
g7
S'cea.demand.rc_model_SIA.calc_rc_model_temperatures_no_heating_cooling'
p2324
sg9
g1487
sg11
g1488
sg13
g86
sbtp2325
a(g1
(g2
g3
Ntp2326
Rp2327
(dp2328
g7
S'cea.demand.rc_model_crank_nicholson_procedure.calc_rc_model_demand_heating_cooling'
p2329
sg9
g1403
sg11
g1404
sg13
g42
sbg1
(g2
g3
Ntp2330
Rp2331
(dp2332
g7
S'cea.demand.control_heating_cooling_systems.heating_system_is_ac'
p2333
sg9
S'C:\\Users\\darthoma\\Documents\\GitHub\\CEAforArcGIS\\cea\\demand\\control_heating_cooling_systems.py'
p2334
sg11
S'heating_system_is_ac'
p2335
sg13
g97
sbtp2336
a(g1
(g2
g3
Ntp2337
Rp2338
(dp2339
g7
S'cea.demand.rc_model_crank_nicholson_procedure.calc_rc_model_demand_heating_cooling'
p2340
sg9
g1403
sg11
g1404
sg13
g42
sbg1
(g2
g3
Ntp2341
Rp2342
(dp2343
g7
S'cea.demand.space_emission_systems.calc_q_em_ls_heating'
p2344
sg9
S'C:\\Users\\darthoma\\Documents\\GitHub\\CEAforArcGIS\\cea\\demand\\space_emission_systems.py'
p2345
sg11
S'calc_q_em_ls_heating'
p2346
sg13
g119
sbtp2347
a(g1
(g2
g3
Ntp2348
Rp2349
(dp2350
g7
S'cea.demand.space_emission_systems.calc_q_em_ls_heating'
p2351
sg9
g2345
sg11
g2346
sg13
g119
sbg1
(g2
g3
Ntp2352
Rp2353
(dp2354
g7
S'cea.demand.space_emission_systems.calc_delta_theta_int_inc_heating'
p2355
sg9
S'C:\\Users\\darthoma\\Documents\\GitHub\\CEAforArcGIS\\cea\\demand\\space_emission_systems.py'
p2356
sg11
S'calc_delta_theta_int_inc_heating'
p2357
sg13
g119
sbtp2358
a(g1
(g2
g3
Ntp2359
Rp2360
(dp2361
g7
S'cea.demand.space_emission_systems.calc_q_em_ls_heating'
p2362
sg9
g2345
sg11
g2346
sg13
g119
sbg1
(g2
g3
Ntp2363
Rp2364
(dp2365
g7
S'cea.demand.space_emission_systems.calc_theta_int_inc'
p2366
sg9
g2270
sg11
g2271
sg13
g119
sbtp2367
a(g1
(g2
g3
Ntp2368
Rp2369
(dp2370
g7
S'cea.demand.space_emission_systems.calc_q_em_ls_heating'
p2371
sg9
g2345
sg11
g2346
sg13
g119
sbg1
(g2
g3
Ntp2372
Rp2373
(dp2374
g7
S'cea.demand.space_emission_systems.calc_theta_e_comb_heating'
p2375
sg9
S'C:\\Users\\darthoma\\Documents\\GitHub\\CEAforArcGIS\\cea\\demand\\space_emission_systems.py'
p2376
sg11
S'calc_theta_e_comb_heating'
p2377
sg13
g119
sbtp2378
a(g1
(g2
g3
Ntp2379
Rp2380
(dp2381
g7
S'cea.demand.space_emission_systems.calc_q_em_ls_heating'
p2382
sg9
g2345
sg11
g2346
sg13
g119
sbg1
(g2
g3
Ntp2383
Rp2384
(dp2385
g7
S'cea.demand.space_emission_systems.calc_q_em_ls'
p2386
sg9
g2303
sg11
g2304
sg13
g119
sbtp2387
a(g1
(g2
g3
Ntp2388
Rp2389
(dp2390
g7
S'cea.demand.thermal_loads.calc_thermal_loads'
p2391
sg9
g881
sg11
g882
sg13
g31
sbg1
(g2
g3
Ntp2392
Rp2393
(dp2394
g7
S'cea.demand.sensible_loads.calc_Qhs_Qcs_dis_ls'
p2395
sg9
S'C:\\Users\\darthoma\\Documents\\GitHub\\CEAforArcGIS\\cea\\demand\\sensible_loads.py'
p2396
sg11
S'calc_Qhs_Qcs_dis_ls'
p2397
sg13
g152
sbtp2398
a(g1
(g2
g3
Ntp2399
Rp2400
(dp2401
g7
S'cea.demand.thermal_loads.calc_thermal_loads'
p2402
sg9
g881
sg11
g882
sg13
g31
sbg1
(g2
g3
Ntp2403
Rp2404
(dp2405
g7
S'cea.demand.sensible_loads.calc_temperatures_emission_systems'
p2406
sg9
S'C:\\Users\\darthoma\\Documents\\GitHub\\CEAforArcGIS\\cea\\demand\\sensible_loads.py'
p2407
sg11
S'calc_temperatures_emission_systems'
p2408
sg13
g152
sbtp2409
a(g1
(g2
g3
Ntp2410
Rp2411
(dp2412
g7
S'cea.demand.sensible_loads.calc_temperatures_emission_systems'
p2413
sg9
g2407
sg11
g2408
sg13
g152
sbg1
(g2
g3
Ntp2414
Rp2415
(dp2416
g7
S'cea.technologies.radiators.<module>'
p2417
sg9
S'C:\\Users\\darthoma\\Documents\\GitHub\\CEAforArcGIS\\cea\\technologies\\radiators.py'
p2418
sg11
g12
sg13
S'cea.technologies.radiators'
p2419
sbtp2420
a(g1
(g2
g3
Ntp2421
Rp2422
(dp2423
g7
S'cea.demand.sensible_loads.calc_temperatures_emission_systems'
p2424
sg9
g2407
sg11
g2408
sg13
g152
sbg1
(g2
g3
Ntp2425
Rp2426
(dp2427
g7
S'cea.technologies.heating_coils.<module>'
p2428
sg9
S'C:\\Users\\darthoma\\Documents\\GitHub\\CEAforArcGIS\\cea\\technologies\\heating_coils.py'
p2429
sg11
g12
sg13
S'cea.technologies.heating_coils'
p2430
sbtp2431
a(g1
(g2
g3
Ntp2432
Rp2433
(dp2434
g7
S'cea.demand.sensible_loads.calc_temperatures_emission_systems'
p2435
sg9
g2407
sg11
g2408
sg13
g152
sbg1
(g2
g3
Ntp2436
Rp2437
(dp2438
g7
S'cea.technologies.tabs.<module>'
p2439
sg9
S'C:\\Users\\darthoma\\Documents\\GitHub\\CEAforArcGIS\\cea\\technologies\\tabs.py'
p2440
sg11
g12
sg13
S'cea.technologies.tabs'
p2441
sbtp2442
a(g1
(g2
g3
Ntp2443
Rp2444
(dp2445
g7
S'cea.demand.sensible_loads.calc_temperatures_emission_systems'
p2446
sg9
g2407
sg11
g2408
sg13
g152
sbg1
(g2
g3
Ntp2447
Rp2448
(dp2449
g7
S'cea.technologies.radiators.calc_radiator'
p2450
sg9
S'C:\\Users\\darthoma\\Documents\\GitHub\\CEAforArcGIS\\cea\\technologies\\radiators.py'
p2451
sg11
S'calc_radiator'
p2452
sg13
g2419
sbtp2453
a(g1
(g2
g3
Ntp2454
Rp2455
(dp2456
g7
S'cea.demand.sensible_loads.calc_temperatures_emission_systems'
p2457
sg9
g2407
sg11
g2408
sg13
g152
sbg1
(g2
g3
Ntp2458
Rp2459
(dp2460
g7
S'cea.technologies.heating_coils.calc_cooling_coil'
p2461
sg9
S'C:\\Users\\darthoma\\Documents\\GitHub\\CEAforArcGIS\\cea\\technologies\\heating_coils.py'
p2462
sg11
S'calc_cooling_coil'
p2463
sg13
g2430
sbtp2464
a(g1
(g2
g3
Ntp2465
Rp2466
(dp2467
g7
S'cea.technologies.heating_coils.calc_cooling_coil'
p2468
sg9
g2462
sg11
g2463
sg13
g2430
sbg1
(g2
g3
Ntp2469
Rp2470
(dp2471
g7
S'cea.technologies.heating_coils.fh'
p2472
sg9
S'C:\\Users\\darthoma\\Documents\\GitHub\\CEAforArcGIS\\cea\\technologies\\heating_coils.py'
p2473
sg11
S'fh'
p2474
sg13
g2430
sbtp2475
a(g1
(g2
g3
Ntp2476
Rp2477
(dp2478
g7
S'cea.demand.thermal_loads.calc_thermal_loads'
p2479
sg9
g881
sg11
g882
sg13
g31
sbg1
(g2
g3
Ntp2480
Rp2481
(dp2482
g7
S'cea.demand.hotwater_loads.calc_Qwwf'
p2483
sg9
S'C:\\Users\\darthoma\\Documents\\GitHub\\CEAforArcGIS\\cea\\demand\\hotwater_loads.py'
p2484
sg11
S'calc_Qwwf'
p2485
sg13
g174
sbtp2486
a(g1
(g2
g3
Ntp2487
Rp2488
(dp2489
g7
S'cea.demand.hotwater_loads.calc_Qwwf'
p2490
sg9
g2484
sg11
g2485
sg13
g174
sbg1
(g2
g3
Ntp2491
Rp2492
(dp2493
g7
S'cea.demand.hotwater_loads.calc_Qww_schedule'
p2494
sg9
S'C:\\Users\\darthoma\\Documents\\GitHub\\CEAforArcGIS\\cea\\demand\\hotwater_loads.py'
p2495
sg11
S'calc_Qww_schedule'
p2496
sg13
g174
sbtp2497
a(g1
(g2
g3
Ntp2498
Rp2499
(dp2500
g7
S'cea.demand.hotwater_loads.calc_Qww_schedule'
p2501
sg9
g2495
sg11
g2496
sg13
g174
sbg1
(g2
g3
Ntp2502
Rp2503
(dp2504
g7
S'cea.demand.hotwater_loads.calc_average'
p2505
sg9
S'C:\\Users\\darthoma\\Documents\\GitHub\\CEAforArcGIS\\cea\\demand\\hotwater_loads.py'
p2506
sg11
g937
sg13
g174
sbtp2507
a(g1
(g2
g3
Ntp2508
Rp2509
(dp2510
g7
S'cea.demand.hotwater_loads.calc_Qwwf'
p2511
sg9
g2484
sg11
g2485
sg13
g174
sbg1
(g2
g3
Ntp2512
Rp2513
(dp2514
g7
S'cea.demand.hotwater_loads.calc_mww'
p2515
sg9
S'C:\\Users\\darthoma\\Documents\\GitHub\\CEAforArcGIS\\cea\\demand\\hotwater_loads.py'
p2516
sg11
S'calc_mww'
p2517
sg13
g174
sbtp2518
a(g1
(g2
g3
Ntp2519
Rp2520
(dp2521
g7
S'cea.demand.hotwater_loads.calc_Qwwf'
p2522
sg9
g2484
sg11
g2485
sg13
g174
sbg1
(g2
g3
Ntp2523
Rp2524
(dp2525
g7
S'cea.demand.hotwater_loads.calc_Qww'
p2526
sg9
S'C:\\Users\\darthoma\\Documents\\GitHub\\CEAforArcGIS\\cea\\demand\\hotwater_loads.py'
p2527
sg11
S'calc_Qww'
p2528
sg13
g174
sbtp2529
a(g1
(g2
g3
Ntp2530
Rp2531
(dp2532
g7
S'cea.demand.hotwater_loads.calc_Qwwf'
p2533
sg9
g2484
sg11
g2485
sg13
g174
sbg1
(g2
g3
Ntp2534
Rp2535
(dp2536
g7
S'cea.demand.hotwater_loads.calc_Qww_dis_ls_r'
p2537
sg9
S'C:\\Users\\darthoma\\Documents\\GitHub\\CEAforArcGIS\\cea\\demand\\hotwater_loads.py'
p2538
sg11
S'calc_Qww_dis_ls_r'
p2539
sg13
g174
sbtp2540
a(g1
(g2
g3
Ntp2541
Rp2542
(dp2543
g7
S'cea.demand.hotwater_loads.calc_Qww_dis_ls_r'
p2544
sg9
g2538
sg11
g2539
sg13
g174
sbg1
(g2
g3
Ntp2545
Rp2546
(dp2547
g7
S'cea.demand.hotwater_loads.calc_disls'
p2548
sg9
S'C:\\Users\\darthoma\\Documents\\GitHub\\CEAforArcGIS\\cea\\demand\\hotwater_loads.py'
p2549
sg11
S'calc_disls'
p2550
sg13
g174
sbtp2551
a(g1
(g2
g3
Ntp2552
Rp2553
(dp2554
g7
S'cea.demand.hotwater_loads.calc_Qwwf'
p2555
sg9
g2484
sg11
g2485
sg13
g174
sbg1
(g2
g3
Ntp2556
Rp2557
(dp2558
g7
S'cea.demand.hotwater_loads.calc_Qww_dis_ls_nr'
p2559
sg9
S'C:\\Users\\darthoma\\Documents\\GitHub\\CEAforArcGIS\\cea\\demand\\hotwater_loads.py'
p2560
sg11
S'calc_Qww_dis_ls_nr'
p2561
sg13
g174
sbtp2562
a(g1
(g2
g3
Ntp2563
Rp2564
(dp2565
g7
S'cea.demand.hotwater_loads.calc_Qww_dis_ls_nr'
p2566
sg9
g2560
sg11
g2561
sg13
g174
sbg1
(g2
g3
Ntp2567
Rp2568
(dp2569
g7
S'cea.demand.hotwater_loads.calc_disls'
p2570
sg9
g2549
sg11
g2550
sg13
g174
sbtp2571
a(g1
(g2
g3
Ntp2572
Rp2573
(dp2574
g7
S'cea.demand.hotwater_loads.calc_Qwwf'
p2575
sg9
g2484
sg11
g2485
sg13
g174
sbg1
(g2
g3
Ntp2576
Rp2577
(dp2578
g7
S'cea.demand.hotwater_loads.calc_Qww_st_ls'
p2579
sg9
S'C:\\Users\\darthoma\\Documents\\GitHub\\CEAforArcGIS\\cea\\demand\\hotwater_loads.py'
p2580
sg11
S'calc_Qww_st_ls'
p2581
sg13
g174
sbtp2582
a(g1
(g2
g3
Ntp2583
Rp2584
(dp2585
g7
S'cea.demand.hotwater_loads.calc_Qww_st_ls'
p2586
sg9
g2580
sg11
g2581
sg13
g174
sbg1
(g2
g3
Ntp2587
Rp2588
(dp2589
g7
S'cea.technologies.storagetank.calc_Qww_ls_st'
p2590
sg9
S'C:\\Users\\darthoma\\Documents\\GitHub\\CEAforArcGIS\\cea\\technologies\\storagetank.py'
p2591
sg11
S'calc_Qww_ls_st'
p2592
sg13
g196
sbtp2593
a(g1
(g2
g3
Ntp2594
Rp2595
(dp2596
g7
S'cea.demand.hotwater_loads.calc_Qww_st_ls'
p2597
sg9
g2580
sg11
g2581
sg13
g174
sbg1
(g2
g3
Ntp2598
Rp2599
(dp2600
g7
S'cea.technologies.storagetank.solve_ode_storage'
p2601
sg9
S'C:\\Users\\darthoma\\Documents\\GitHub\\CEAforArcGIS\\cea\\technologies\\storagetank.py'
p2602
sg11
S'solve_ode_storage'
p2603
sg13
g196
sbtp2604
a(g1
(g2
g3
Ntp2605
Rp2606
(dp2607
g7
S'cea.technologies.storagetank.solve_ode_storage'
p2608
sg9
g2602
sg11
g2603
sg13
g196
sbg1
(g2
g3
Ntp2609
Rp2610
(dp2611
g7
S'cea.technologies.storagetank.ode'
p2612
sg9
S'C:\\Users\\darthoma\\Documents\\GitHub\\CEAforArcGIS\\cea\\technologies\\storagetank.py'
p2613
sg11
S'ode'
p2614
sg13
g196
sbtp2615
a(g1
(g2
g3
Ntp2616
Rp2617
(dp2618
g7
S'cea.demand.thermal_loads.calc_thermal_loads'
p2619
sg9
g881
sg11
g882
sg13
g31
sbg1
(g2
g3
Ntp2620
Rp2621
(dp2622
g7
S'cea.demand.electrical_loads.calc_Eauxf'
p2623
sg9
S'C:\\Users\\darthoma\\Documents\\GitHub\\CEAforArcGIS\\cea\\demand\\electrical_loads.py'
p2624
sg11
S'calc_Eauxf'
p2625
sg13
g163
sbtp2626
a(g1
(g2
g3
Ntp2627
Rp2628
(dp2629
g7
S'cea.demand.electrical_loads.calc_Eauxf'
p2630
sg9
g2624
sg11
g2625
sg13
g163
sbg1
(g2
g3
Ntp2631
Rp2632
(dp2633
g7
S'cea.demand.electrical_loads.calc_Eauxf_ww'
p2634
sg9
S'C:\\Users\\darthoma\\Documents\\GitHub\\CEAforArcGIS\\cea\\demand\\electrical_loads.py'
p2635
sg11
S'calc_Eauxf_ww'
p2636
sg13
g163
sbtp2637
a(g1
(g2
g3
Ntp2638
Rp2639
(dp2640
g7
S'cea.demand.electrical_loads.calc_Eauxf'
p2641
sg9
g2624
sg11
g2625
sg13
g163
sbg1
(g2
g3
Ntp2642
Rp2643
(dp2644
g7
S'cea.demand.electrical_loads.calc_Eauxf_hs_dis'
p2645
sg9
S'C:\\Users\\darthoma\\Documents\\GitHub\\CEAforArcGIS\\cea\\demand\\electrical_loads.py'
p2646
sg11
S'calc_Eauxf_hs_dis'
p2647
sg13
g163
sbtp2648
a(g1
(g2
g3
Ntp2649
Rp2650
(dp2651
g7
S'cea.demand.electrical_loads.calc_Eauxf'
p2652
sg9
g2624
sg11
g2625
sg13
g163
sbg1
(g2
g3
Ntp2653
Rp2654
(dp2655
g7
S'cea.demand.electrical_loads.calc_Eauxf_cs_dis'
p2656
sg9
S'C:\\Users\\darthoma\\Documents\\GitHub\\CEAforArcGIS\\cea\\demand\\electrical_loads.py'
p2657
sg11
S'calc_Eauxf_cs_dis'
p2658
sg13
g163
sbtp2659
a(g1
(g2
g3
Ntp2660
Rp2661
(dp2662
g7
S'cea.demand.electrical_loads.calc_Eauxf'
p2663
sg9
g2624
sg11
g2625
sg13
g163
sbg1
(g2
g3
Ntp2664
Rp2665
(dp2666
g7
S'cea.demand.electrical_loads.calc_Eauxf_fw'
p2667
sg9
S'C:\\Users\\darthoma\\Documents\\GitHub\\CEAforArcGIS\\cea\\demand\\electrical_loads.py'
p2668
sg11
S'calc_Eauxf_fw'
p2669
sg13
g163
sbtp2670
a(g1
(g2
g3
Ntp2671
Rp2672
(dp2673
g7
S'cea.demand.electrical_loads.calc_Eauxf'
p2674
sg9
g2624
sg11
g2625
sg13
g163
sbg1
(g2
g3
Ntp2675
Rp2676
(dp2677
g7
S'cea.demand.electrical_loads.calc_Eauxf_ve'
p2678
sg9
S'C:\\Users\\darthoma\\Documents\\GitHub\\CEAforArcGIS\\cea\\demand\\electrical_loads.py'
p2679
sg11
S'calc_Eauxf_ve'
p2680
sg13
g163
sbtp2681
a(g1
(g2
g3
Ntp2682
Rp2683
(dp2684
g7
S'cea.demand.thermal_loads.calc_thermal_loads'
p2685
sg9
g881
sg11
g882
sg13
g31
sbg1
(g2
g3
Ntp2686
Rp2687
(dp2688
g7
S'cea.demand.demand_writers.HourlyDemandWriter.results_to_csv'
p2689
sg9
S'C:\\Users\\darthoma\\Documents\\GitHub\\CEAforArcGIS\\cea\\demand\\demand_writers.py'
p2690
sg11
S'results_to_csv'
p2691
sg13
g285
sbtp2692
a(g1
(g2
g3
Ntp2693
Rp2694
(dp2695
g7
S'cea.demand.demand_writers.HourlyDemandWriter.results_to_csv'
p2696
sg9
g2690
sg11
g2691
sg13
g285
sbg1
(g2
g3
Ntp2697
Rp2698
(dp2699
g7
S'cea.demand.demand_writers.<genexpr>'
p2700
sg9
S'C:\\Users\\darthoma\\Documents\\GitHub\\CEAforArcGIS\\cea\\demand\\demand_writers.py'
p2701
sg11
S'<genexpr>'
p2702
sg13
g285
sbtp2703
a(g1
(g2
g3
Ntp2704
Rp2705
(dp2706
g7
S'cea.demand.demand_writers.HourlyDemandWriter.results_to_csv'
p2707
sg9
g2690
sg11
g2691
sg13
g285
sbg1
(g2
g3
Ntp2708
Rp2709
(dp2710
g7
S'cea.demand.demand_writers.HourlyDemandWriter.write_to_csv'
p2711
sg9
S'C:\\Users\\darthoma\\Documents\\GitHub\\CEAforArcGIS\\cea\\demand\\demand_writers.py'
p2712
sg11
S'write_to_csv'
p2713
sg13
g285
sbtp2714
a(g1
(g2
g3
Ntp2715
Rp2716
(dp2717
g7
S'cea.demand.demand_writers.HourlyDemandWriter.write_to_csv'
p2718
sg9
g2712
sg11
g2713
sg13
g285
sbg1
(g2
g3
Ntp2719
Rp2720
(dp2721
g7
S'cea.inputlocator.InputLocator.get_demand_results_file'
p2722
sg9
S'C:\\Users\\darthoma\\Documents\\GitHub\\CEAforArcGIS\\cea\\inputlocator.py'
p2723
sg11
S'get_demand_results_file'
p2724
sg13
g309
sbtp2725
a(g1
(g2
g3
Ntp2726
Rp2727
(dp2728
g7
S'cea.inputlocator.InputLocator.get_demand_results_file'
p2729
sg9
g2723
sg11
g2724
sg13
g309
sbg1
(g2
g3
Ntp2730
Rp2731
(dp2732
g7
S'cea.inputlocator.InputLocator.get_demand_results_folder'
p2733
sg9
S'C:\\Users\\darthoma\\Documents\\GitHub\\CEAforArcGIS\\cea\\inputlocator.py'
p2734
sg11
S'get_demand_results_folder'
p2735
sg13
g309
sbtp2736
a(g1
(g2
g3
Ntp2737
Rp2738
(dp2739
g7
S'cea.inputlocator.InputLocator.get_demand_results_folder'
p2740
sg9
g2734
sg11
g2735
sg13
g309
sbg1
(g2
g3
Ntp2741
Rp2742
(dp2743
g7
S'cea.inputlocator._ensure_folder'
p2744
sg9
g330
sg11
g331
sg13
g309
sbtp2745
a(g1
(g2
g3
Ntp2746
Rp2747
(dp2748
g7
S'cea.demand.demand_writers.HourlyDemandWriter.results_to_csv'
p2749
sg9
g2690
sg11
g2691
sg13
g285
sbg1
(g2
g3
Ntp2750
Rp2751
(dp2752
g7
S'cea.inputlocator.InputLocator.get_temporary_file'
p2753
sg9
S'C:\\Users\\darthoma\\Documents\\GitHub\\CEAforArcGIS\\cea\\inputlocator.py'
p2754
sg11
S'get_temporary_file'
p2755
sg13
g309
sbtp2756
a(g1
(g2
g3
Ntp2757
Rp2758
(dp2759
g7
S'cea.inputlocator.InputLocator.get_temporary_file'
p2760
sg9
g2754
sg11
g2755
sg13
g309
sbg1
(g2
g3
Ntp2761
Rp2762
(dp2763
g7
S'cea.inputlocator.InputLocator.get_temporary_folder'
p2764
sg9
S'C:\\Users\\darthoma\\Documents\\GitHub\\CEAforArcGIS\\cea\\inputlocator.py'
p2765
sg11
S'get_temporary_folder'
p2766
sg13
g309
sbtp2767
a(g1
(g2
g3
Ntp2768
Rp2769
(dp2770
g7
S'cea.demand.thermal_loads.calc_thermal_loads'
p2771
sg9
g881
sg11
g882
sg13
g31
sbg1
(g2
g3
Ntp2772
Rp2773
(dp2774
g7
S'cea.inputlocator.InputLocator.get_demand_results_folder'
p2775
sg9
g2734
sg11
g2735
sg13
g309
sbtp2776
a(g1
(g2
g3
Ntp2777
Rp2778
(dp2779
g7
S'cea.demand.thermal_loads.calc_thermal_loads'
p2780
sg9
g881
sg11
g882
sg13
g31
sbg1
(g2
g3
Ntp2781
Rp2782
(dp2783
g7
S'cea.globalvar.GlobalVariables.report'
p2784
sg9
S'C:\\Users\\darthoma\\Documents\\GitHub\\CEAforArcGIS\\cea\\globalvar.py'
p2785
sg11
S'report'
p2786
sg13
g274
sbtp2787
a(g1
(g2
g3
Ntp2788
Rp2789
(dp2790
g7
S'cea.demand.demand_main.thermal_loads_all_buildings'
p2791
sg9
g706
sg11
g707
sg13
g14
sbg1
(g2
g3
Ntp2792
Rp2793
(dp2794
g7
S'cea.globalvar.GlobalVariables.log'
p2795
sg9
g415
sg11
g416
sg13
g274
sbtp2796
a(g1
(g2
g3
Ntp2797
Rp2798
(dp2799
g7
S'cea.demand.demand_main.demand_calculation'
p2800
sg9
g301
sg11
g302
sg13
g14
sbg1
(g2
g3
Ntp2801
Rp2802
(dp2803
g7
S'cea.demand.demand_writers.HourlyDemandWriter.write_totals_csv'
p2804
sg9
S'C:\\Users\\darthoma\\Documents\\GitHub\\CEAforArcGIS\\cea\\demand\\demand_writers.py'
p2805
sg11
S'write_totals_csv'
p2806
sg13
g285
sbtp2807
a(g1
(g2
g3
Ntp2808
Rp2809
(dp2810
g7
S'cea.demand.demand_writers.HourlyDemandWriter.write_totals_csv'
p2811
sg9
g2805
sg11
g2806
sg13
g285
sbg1
(g2
g3
Ntp2812
Rp2813
(dp2814
g7
S'cea.demand.thermal_loads.BuildingProperties.list_building_names'
p2815
sg9
S'C:\\Users\\darthoma\\Documents\\GitHub\\CEAforArcGIS\\cea\\demand\\thermal_loads.py'
p2816
sg11
S'list_building_names'
p2817
sg13
g31
sbtp2818
a(g1
(g2
g3
Ntp2819
Rp2820
(dp2821
g7
S'cea.demand.demand_writers.HourlyDemandWriter.write_totals_csv'
p2822
sg9
g2805
sg11
g2806
sg13
g285
sbg1
(g2
g3
Ntp2823
Rp2824
(dp2825
g7
S'cea.inputlocator.InputLocator.get_temporary_file'
p2826
sg9
g2754
sg11
g2755
sg13
g309
sbtp2827
a(g1
(g2
g3
Ntp2828
Rp2829
(dp2830
g7
S'cea.demand.demand_writers.HourlyDemandWriter.write_totals_csv'
p2831
sg9
g2805
sg11
g2806
sg13
g285
sbg1
(g2
g3
Ntp2832
Rp2833
(dp2834
g7
S'cea.inputlocator.InputLocator.get_total_demand'
p2835
sg9
S'C:\\Users\\darthoma\\Documents\\GitHub\\CEAforArcGIS\\cea\\inputlocator.py'
p2836
sg11
S'get_total_demand'
p2837
sg13
g309
sbtp2838
a(g1
(g2
g3
Ntp2839
Rp2840
(dp2841
g7
S'cea.inputlocator.InputLocator.get_total_demand'
p2842
sg9
g2836
sg11
g2837
sg13
g309
sbg1
(g2
g3
Ntp2843
Rp2844
(dp2845
g7
S'cea.inputlocator.InputLocator.get_demand_results_folder'
p2846
sg9
g2734
sg11
g2735
sg13
g309
sbtp2847
a(g1
(g2
g3
Ntp2848
Rp2849
(dp2850
g7
S'cea.demand.demand_writers.HourlyDemandWriter.write_totals_csv'
p2851
sg9
g2805
sg11
g2806
sg13
g285
sbg1
(g2
g3
Ntp2852
Rp2853
(dp2854
g7
S'cea.inputlocator.InputLocator.get_demand_results_file'
p2855
sg9
g2723
sg11
g2724
sg13
g309
sbtp2856
a(g1
(g2
g3
Ntp2857
Rp2858
(dp2859
g7
S'cea.demand.demand_main.demand_calculation'
p2860
sg9
g301
sg11
g302
sg13
g14
sbg1
(g2
g3
Ntp2861
Rp2862
(dp2863
g7
S'cea.globalvar.GlobalVariables.log'
p2864
sg9
g415
sg11
g416
sg13
g274
sbtp2865
a.