(lp0
(ccopy_reg
_reconstructor
p1
(c__main__
TraceDataInfo
p2
c__builtin__
object
p3
Ntp4
Rp5
(dp6
S'fqname'
p7
S'cea.analysis.benchmark.benchmark'
p8
sS'path'
p9
S'cea\\analysis\\benchmark.py'
p10
sS'name'
p11
S'benchmark'
p12
sS'module'
p13
S'cea.analysis.benchmark'
p14
sbg1
(g2
g3
Ntp15
Rp16
(dp17
g7
S'cea.analysis.benchmark.calc_benchmark_targets'
p18
sg9
g10
sg11
S'calc_benchmark_targets'
p19
sg13
g14
sbtp20
a(g1
(g2
g3
Ntp21
Rp22
(dp23
g7
S'cea.analysis.benchmark.calc_benchmark_targets'
p24
sg9
g10
sg11
g19
sg13
g14
sbg1
(g2
g3
Ntp25
Rp26
(dp27
g7
S'cea.inputlocator.InputLocator.get_total_demand'
p28
sg9
S'cea\\inputlocator.py'
p29
sg11
S'get_total_demand'
p30
sg13
S'cea.inputlocator'
p31
sbtp32
a(g1
(g2
g3
Ntp33
Rp34
(dp35
g7
S'cea.inputlocator.InputLocator.get_total_demand'
p36
sg9
g29
sg11
g30
sg13
g31
sbg1
(g2
g3
Ntp37
Rp38
(dp39
g7
S'cea.inputlocator.InputLocator.get_demand_results_folder'
p40
sg9
S'cea\\inputlocator.py'
p41
sg11
S'get_demand_results_folder'
p42
sg13
g31
sbtp43
a(g1
(g2
g3
Ntp44
Rp45
(dp46
g7
S'cea.inputlocator.InputLocator.get_demand_results_folder'
p47
sg9
g41
sg11
g42
sg13
g31
sbg1
(g2
g3
Ntp48
Rp49
(dp50
g7
S'cea.inputlocator._ensure_folder'
p51
sg9
S'cea\\inputlocator.py'
p52
sg11
S'_ensure_folder'
p53
sg13
g31
sbtp54
a(g1
(g2
g3
Ntp55
Rp56
(dp57
g7
S'cea.analysis.benchmark.calc_benchmark_targets'
p58
sg9
g10
sg11
g19
sg13
g14
sbg1
(g2
g3
Ntp59
Rp60
(dp61
g7
S'cea.inputlocator.InputLocator.get_building_occupancy'
p62
sg9
S'cea\\inputlocator.py'
p63
sg11
S'get_building_occupancy'
p64
sg13
g31
sbtp65
a(g1
(g2
g3
Ntp66
Rp67
(dp68
g7
S'cea.analysis.benchmark.calc_benchmark_targets'
p69
sg9
g10
sg11
g19
sg13
g14
sbg1
(g2
g3
Ntp70
Rp71
(dp72
g7
S'cea.inputlocator.InputLocator.get_data_benchmark'
p73
sg9
S'cea\\inputlocator.py'
p74
sg11
S'get_data_benchmark'
p75
sg13
g31
sbtp76
a(g1
(g2
g3
Ntp77
Rp78
(dp79
g7
S'cea.analysis.benchmark.benchmark'
p80
sg9
g10
sg11
g12
sg13
g14
sbg1
(g2
g3
Ntp81
Rp82
(dp83
g7
S'cea.analysis.benchmark.calc_benchmark_today'
p84
sg9
g10
sg11
S'calc_benchmark_today'
p85
sg13
g14
sbtp86
a(g1
(g2
g3
Ntp87
Rp88
(dp89
g7
S'cea.analysis.benchmark.calc_benchmark_today'
p90
sg9
g10
sg11
g85
sg13
g14
sbg1
(g2
g3
Ntp91
Rp92
(dp93
g7
S'cea.inputlocator.InputLocator.get_total_demand'
p94
sg9
g29
sg11
g30
sg13
g31
sbtp95
a(g1
(g2
g3
Ntp96
Rp97
(dp98
g7
S'cea.analysis.benchmark.calc_benchmark_today'
p99
sg9
g10
sg11
g85
sg13
g14
sbg1
(g2
g3
Ntp100
Rp101
(dp102
g7
S'cea.inputlocator.InputLocator.get_building_occupancy'
p103
sg9
g63
sg11
g64
sg13
g31
sbtp104
a(g1
(g2
g3
Ntp105
Rp106
(dp107
g7
S'cea.analysis.benchmark.calc_benchmark_today'
p108
sg9
g10
sg11
g85
sg13
g14
sbg1
(g2
g3
Ntp109
Rp110
(dp111
g7
S'cea.inputlocator.InputLocator.get_data_benchmark_today'
p112
sg9
S'cea\\inputlocator.py'
p113
sg11
S'get_data_benchmark_today'
p114
sg13
g31
sbtp115
a(g1
(g2
g3
Ntp116
Rp117
(dp118
g7
S'cea.analysis.benchmark.benchmark'
p119
sg9
g10
sg11
g12
sg13
g14
sbg1
(g2
g3
Ntp120
Rp121
(dp122
g7
S'cea.inputlocator.InputLocator.get_total_demand'
p123
sg9
g29
sg11
g30
sg13
g31
sbtp124
a(g1
(g2
g3
Ntp125
Rp126
(dp127
g7
S'cea.analysis.benchmark.benchmark'
p128
sg9
g10
sg11
g12
sg13
g14
sbg1
(g2
g3
Ntp129
Rp130
(dp131
g7
S'cea.inputlocator.InputLocator.get_lca_embodied'
p132
sg9
S'cea\\inputlocator.py'
p133
sg11
S'get_lca_embodied'
p134
sg13
g31
sbtp135
a(g1
(g2
g3
Ntp136
Rp137
(dp138
g7
S'cea.inputlocator.InputLocator.get_lca_embodied'
p139
sg9
g133
sg11
g134
sg13
g31
sbg1
(g2
g3
Ntp140
Rp141
(dp142
g7
S'cea.inputlocator.InputLocator.get_lca_emissions_results_folder'
p143
sg9
S'cea\\inputlocator.py'
p144
sg11
S'get_lca_emissions_results_folder'
p145
sg13
g31
sbtp146
a(g1
(g2
g3
Ntp147
Rp148
(dp149
g7
S'cea.analysis.benchmark.benchmark'
p150
sg9
g10
sg11
g12
sg13
g14
sbg1
(g2
g3
Ntp151
Rp152
(dp153
g7
S'cea.inputlocator.InputLocator.get_lca_operation'
p154
sg9
S'cea\\inputlocator.py'
p155
sg11
S'get_lca_operation'
p156
sg13
g31
sbtp157
a(g1
(g2
g3
Ntp158
Rp159
(dp160
g7
S'cea.inputlocator.InputLocator.get_lca_operation'
p161
sg9
g155
sg11
g156
sg13
g31
sbg1
(g2
g3
Ntp162
Rp163
(dp164
g7
S'cea.inputlocator.InputLocator.get_lca_emissions_results_folder'
p165
sg9
g144
sg11
g145
sg13
g31
sbtp166
a(g1
(g2
g3
Ntp167
Rp168
(dp169
g7
S'cea.analysis.benchmark.benchmark'
p170
sg9
g10
sg11
g12
sg13
g14
sbg1
(g2
g3
Ntp171
Rp172
(dp173
g7
S'cea.inputlocator.InputLocator.get_lca_mobility'
p174
sg9
S'cea\\inputlocator.py'
p175
sg11
S'get_lca_mobility'
p176
sg13
g31
sbtp177
a(g1
(g2
g3
Ntp178
Rp179
(dp180
g7
S'cea.inputlocator.InputLocator.get_lca_mobility'
p181
sg9
g175
sg11
g176
sg13
g31
sbg1
(g2
g3
Ntp182
Rp183
(dp184
g7
S'cea.inputlocator.InputLocator.get_lca_emissions_results_folder'
p185
sg9
g144
sg11
g145
sg13
g31
sbtp186
a.