(lp0
(ccopy_reg
_reconstructor
p1
(c__main__
TraceDataInfo
p2
c__builtin__
object
p3
Ntp4
Rp5
(dp6
S'fqname'
p7
S'cea.demand.preprocessing.properties.properties'
p8
sS'path'
p9
S'cea\\demand\\preprocessing\\properties.py'
p10
sS'name'
p11
S'properties'
p12
sS'module'
p13
S'cea.demand.preprocessing.properties'
p14
sbg1
(g2
g3
Ntp15
Rp16
(dp17
g7
S'cea.inputlocator.InputLocator.get_building_occupancy'
p18
sg9
S'cea\\inputlocator.py'
p19
sg11
S'get_building_occupancy'
p20
sg13
S'cea.inputlocator'
p21
sbtp22
a(g1
(g2
g3
Ntp23
Rp24
(dp25
g7
S'cea.demand.preprocessing.properties.properties'
p26
sg9
g10
sg11
g12
sg13
g14
sbg1
(g2
g3
Ntp27
Rp28
(dp29
g7
S'cea.inputlocator.InputLocator.get_building_age'
p30
sg9
S'cea\\inputlocator.py'
p31
sg11
S'get_building_age'
p32
sg13
g21
sbtp33
a(g1
(g2
g3
Ntp34
Rp35
(dp36
g7
S'cea.demand.preprocessing.properties.properties'
p37
sg9
g10
sg11
g12
sg13
g14
sbg1
(g2
g3
Ntp38
Rp39
(dp40
g7
S'cea.demand.preprocessing.properties.calc_mainuse'
p41
sg9
g10
sg11
S'calc_mainuse'
p42
sg13
g14
sbtp43
a(g1
(g2
g3
Ntp44
Rp45
(dp46
g7
S'cea.demand.preprocessing.properties.calc_mainuse'
p47
sg9
g10
sg11
g42
sg13
g14
sbg1
(g2
g3
Ntp48
Rp49
(dp50
g7
S'cea.demand.preprocessing.properties.calc_comparison'
p51
sg9
g10
sg11
S'calc_comparison'
p52
sg13
g14
sbtp53
a(g1
(g2
g3
Ntp54
Rp55
(dp56
g7
S'cea.demand.preprocessing.properties.properties'
p57
sg9
g10
sg11
g12
sg13
g14
sbg1
(g2
g3
Ntp58
Rp59
(dp60
g7
S'cea.inputlocator.InputLocator.get_archetypes_properties'
p61
sg9
S'cea\\inputlocator.py'
p62
sg11
S'get_archetypes_properties'
p63
sg13
g21
sbtp64
a(g1
(g2
g3
Ntp65
Rp66
(dp67
g7
S'cea.demand.preprocessing.properties.properties'
p68
sg9
g10
sg11
g12
sg13
g14
sbg1
(g2
g3
Ntp69
Rp70
(dp71
g7
S'cea.demand.preprocessing.properties.get_database'
p72
sg9
g10
sg11
S'get_database'
p73
sg13
g14
sbtp74
a(g1
(g2
g3
Ntp75
Rp76
(dp77
g7
S'cea.demand.preprocessing.properties.properties'
p78
sg9
g10
sg11
g12
sg13
g14
sbg1
(g2
g3
Ntp79
Rp80
(dp81
g7
S'cea.demand.preprocessing.properties.<lambda>'
p82
sg9
g10
sg11
S'<lambda>'
p83
sg13
g14
sbtp84
a(g1
(g2
g3
Ntp85
Rp86
(dp87
g7
S'cea.demand.preprocessing.properties.<lambda>'
p88
sg9
g10
sg11
g83
sg13
g14
sbg1
(g2
g3
Ntp89
Rp90
(dp91
g7
S'cea.demand.preprocessing.properties.calc_category'
p92
sg9
g10
sg11
S'calc_category'
p93
sg13
g14
sbtp94
a(g1
(g2
g3
Ntp95
Rp96
(dp97
g7
S'cea.demand.preprocessing.properties.properties'
p98
sg9
g10
sg11
g12
sg13
g14
sbg1
(g2
g3
Ntp99
Rp100
(dp101
g7
S'cea.inputlocator.InputLocator.get_building_thermal'
p102
sg9
S'cea\\inputlocator.py'
p103
sg11
S'get_building_thermal'
p104
sg13
g21
sbtp105
a(g1
(g2
g3
Ntp106
Rp107
(dp108
g7
S'cea.demand.preprocessing.properties.properties'
p109
sg9
g10
sg11
g12
sg13
g14
sbg1
(g2
g3
Ntp110
Rp111
(dp112
g7
S'cea.inputlocator.InputLocator.get_building_architecture'
p113
sg9
S'cea\\inputlocator.py'
p114
sg11
S'get_building_architecture'
p115
sg13
g21
sbtp116
a(g1
(g2
g3
Ntp117
Rp118
(dp119
g7
S'cea.demand.preprocessing.properties.properties'
p120
sg9
g10
sg11
g12
sg13
g14
sbg1
(g2
g3
Ntp121
Rp122
(dp123
g7
S'cea.inputlocator.InputLocator.get_building_hvac'
p124
sg9
S'cea\\inputlocator.py'
p125
sg11
S'get_building_hvac'
p126
sg13
g21
sbtp127
a(g1
(g2
g3
Ntp128
Rp129
(dp130
g7
S'cea.demand.preprocessing.properties.properties'
p131
sg9
g10
sg11
g12
sg13
g14
sbg1
(g2
g3
Ntp132
Rp133
(dp134
g7
S'cea.inputlocator.InputLocator.get_building_comfort'
p135
sg9
S'cea\\inputlocator.py'
p136
sg11
S'get_building_comfort'
p137
sg13
g21
sbtp138
a(g1
(g2
g3
Ntp139
Rp140
(dp141
g7
S'cea.demand.preprocessing.properties.properties'
p142
sg9
g10
sg11
g12
sg13
g14
sbg1
(g2
g3
Ntp143
Rp144
(dp145
g7
S'cea.inputlocator.InputLocator.get_building_internal'
p146
sg9
S'cea\\inputlocator.py'
p147
sg11
S'get_building_internal'
p148
sg13
g21
sbtp149
a.