(lp0
(ccopy_reg
_reconstructor
p1
(c__main__
TraceDataInfo
p2
c__builtin__
object
p3
Ntp4
Rp5
(dp6
S'fqname'
p7
S'cea.plots.graphs_demand.graphs_demand'
p8
sS'path'
p9
S'cea\\plots\\graphs_demand.py'
p10
sS'name'
p11
S'graphs_demand'
p12
sS'module'
p13
S'cea.plots.graphs_demand'
p14
sbg1
(g2
g3
Ntp15
Rp16
(dp17
g7
S'cea.inputlocator.InputLocator.get_total_demand'
p18
sg9
S'cea\\inputlocator.py'
p19
sg11
S'get_total_demand'
p20
sg13
S'cea.inputlocator'
p21
sbtp22
a(g1
(g2
g3
Ntp23
Rp24
(dp25
g7
S'cea.inputlocator.InputLocator.get_total_demand'
p26
sg9
g19
sg11
g20
sg13
g21
sbg1
(g2
g3
Ntp27
Rp28
(dp29
g7
S'cea.inputlocator.InputLocator.get_demand_results_folder'
p30
sg9
S'cea\\inputlocator.py'
p31
sg11
S'get_demand_results_folder'
p32
sg13
g21
sbtp33
a(g1
(g2
g3
Ntp34
Rp35
(dp36
g7
S'cea.inputlocator.InputLocator.get_demand_results_folder'
p37
sg9
g31
sg11
g32
sg13
g21
sbg1
(g2
g3
Ntp38
Rp39
(dp40
g7
S'cea.inputlocator._ensure_folder'
p41
sg9
S'cea\\inputlocator.py'
p42
sg11
S'_ensure_folder'
p43
sg13
g21
sbtp44
a(g1
(g2
g3
Ntp45
Rp46
(dp47
g7
S'cea.plots.graphs_demand.graphs_demand'
p48
sg9
g10
sg11
g12
sg13
g14
sbg1
(g2
g3
Ntp49
Rp50
(dp51
g7
S'cea.plots.graphs_demand.create_demand_graph_for_building'
p52
sg9
g10
sg11
S'create_demand_graph_for_building'
p53
sg13
g14
sbtp54
a(g1
(g2
g3
Ntp55
Rp56
(dp57
g7
S'cea.plots.graphs_demand.create_demand_graph_for_building'
p58
sg9
g10
sg11
g53
sg13
g14
sbg1
(g2
g3
Ntp59
Rp60
(dp61
g7
S'cea.inputlocator.InputLocator.get_demand_plots_file'
p62
sg9
S'cea\\inputlocator.py'
p63
sg11
S'get_demand_plots_file'
p64
sg13
g21
sbtp65
a(g1
(g2
g3
Ntp66
Rp67
(dp68
g7
S'cea.inputlocator.InputLocator.get_demand_plots_file'
p69
sg9
g63
sg11
g64
sg13
g21
sbg1
(g2
g3
Ntp70
Rp71
(dp72
g7
S'cea.inputlocator.InputLocator.get_demand_plots_folder'
p73
sg9
S'cea\\inputlocator.py'
p74
sg11
S'get_demand_plots_folder'
p75
sg13
g21
sbtp76
a(g1
(g2
g3
Ntp77
Rp78
(dp79
g7
S'cea.inputlocator.InputLocator.get_demand_plots_folder'
p80
sg9
g74
sg11
g75
sg13
g21
sbg1
(g2
g3
Ntp81
Rp82
(dp83
g7
S'cea.inputlocator._ensure_folder'
p84
sg9
g42
sg11
g43
sg13
g21
sbtp85
a(g1
(g2
g3
Ntp86
Rp87
(dp88
g7
S'cea.plots.graphs_demand.create_demand_graph_for_building'
p89
sg9
g10
sg11
g53
sg13
g14
sbg1
(g2
g3
Ntp90
Rp91
(dp92
g7
S'cea.inputlocator.InputLocator.get_demand_results_file'
p93
sg9
S'cea\\inputlocator.py'
p94
sg11
S'get_demand_results_file'
p95
sg13
g21
sbtp96
a(g1
(g2
g3
Ntp97
Rp98
(dp99
g7
S'cea.inputlocator.InputLocator.get_demand_results_file'
p100
sg9
g94
sg11
g95
sg13
g21
sbg1
(g2
g3
Ntp101
Rp102
(dp103
g7
S'cea.inputlocator.InputLocator.get_demand_results_folder'
p104
sg9
g31
sg11
g32
sg13
g21
sbtp105
a(g1
(g2
g3
Ntp106
Rp107
(dp108
g7
S'cea.plots.graphs_demand.graphs_demand'
p109
sg9
g10
sg11
g12
sg13
g14
sbg1
(g2
g3
Ntp110
Rp111
(dp112
g7
S'cea.globalvar.GlobalVariables.log'
p113
sg9
S'cea\\globalvar.py'
p114
sg11
S'log'
p115
sg13
S'cea.globalvar'
p116
sbtp117
a.