(lp0
(ccopy_reg
_reconstructor
p1
(c__main__
TraceDataInfo
p2
c__builtin__
object
p3
Ntp4
Rp5
(dp6
S'fqname'
p7
S'cea.demand.demand_main.<module>'
p8
sS'path'
p9
S'cea\\demand\\demand_main.py'
p10
sS'name'
p11
S'<module>'
p12
sS'module'
p13
S'cea.demand.demand_main'
p14
sbg1
(g2
g3
Ntp15
Rp16
(dp17
g7
S'cea.utilities.epwreader.<module>'
p18
sg9
S'cea\\utilities\\epwreader.py'
p19
sg11
g12
sg13
S'cea.utilities.epwreader'
p20
sbtp21
a(g1
(g2
g3
Ntp22
Rp23
(dp24
g7
S'cea.utilities.epwreader.<module>'
p25
sg9
g19
sg11
g12
sg13
g20
sbg1
(g2
g3
Ntp26
Rp27
(dp28
g7
S'cea.globalvar.GlobalVariables.__init__'
p29
sg9
S'cea\\globalvar.py'
p30
sg11
S'__init__'
p31
sg13
S'cea.globalvar'
p32
sbtp33
a(g1
(g2
g3
Ntp34
Rp35
(dp36
g7
S'cea.globalvar.GlobalVariables.__init__'
p37
sg9
g30
sg11
g31
sg13
g32
sbg1
(g2
g3
Ntp38
Rp39
(dp40
g7
S'cea.demand.demand_writers.HourlyDemandWriter.__init__'
p41
sg9
S'cea\\demand\\demand_writers.py'
p42
sg11
g31
sg13
S'cea.demand.demand_writers'
p43
sbtp44
a(g1
(g2
g3
Ntp45
Rp46
(dp47
g7
S'cea.demand.demand_writers.HourlyDemandWriter.__init__'
p48
sg9
g42
sg11
g31
sg13
g43
sbg1
(g2
g3
Ntp49
Rp50
(dp51
g7
S'cea.demand.demand_writers.HourlyDemandWriter.__init__'
p52
sg9
g42
sg11
g31
sg13
g43
sbtp53
a(g1
(g2
g3
Ntp54
Rp55
(dp56
g7
S'cea.demand.demand_main.demand_calculation'
p57
sg9
g10
sg11
S'demand_calculation'
p58
sg13
g14
sbg1
(g2
g3
Ntp59
Rp60
(dp61
g7
S'cea.inputlocator.InputLocator.get_radiation'
p62
sg9
S'cea\\inputlocator.py'
p63
sg11
S'get_radiation'
p64
sg13
S'cea.inputlocator'
p65
sbtp66
a(g1
(g2
g3
Ntp67
Rp68
(dp69
g7
S'cea.inputlocator.InputLocator.get_radiation'
p70
sg9
g63
sg11
g64
sg13
g65
sbg1
(g2
g3
Ntp71
Rp72
(dp73
g7
S'cea.inputlocator.InputLocator.get_solar_radiation_folder'
p74
sg9
S'cea\\inputlocator.py'
p75
sg11
S'get_solar_radiation_folder'
p76
sg13
g65
sbtp77
a(g1
(g2
g3
Ntp78
Rp79
(dp80
g7
S'cea.inputlocator.InputLocator.get_solar_radiation_folder'
p81
sg9
g75
sg11
g76
sg13
g65
sbg1
(g2
g3
Ntp82
Rp83
(dp84
g7
S'cea.inputlocator._ensure_folder'
p85
sg9
S'cea\\inputlocator.py'
p86
sg11
S'_ensure_folder'
p87
sg13
g65
sbtp88
a(g1
(g2
g3
Ntp89
Rp90
(dp91
g7
S'cea.demand.demand_main.demand_calculation'
p92
sg9
g10
sg11
g58
sg13
g14
sbg1
(g2
g3
Ntp93
Rp94
(dp95
g7
S'cea.inputlocator.InputLocator.get_surface_properties'
p96
sg9
S'cea\\inputlocator.py'
p97
sg11
S'get_surface_properties'
p98
sg13
g65
sbtp99
a(g1
(g2
g3
Ntp100
Rp101
(dp102
g7
S'cea.inputlocator.InputLocator.get_surface_properties'
p103
sg9
g97
sg11
g98
sg13
g65
sbg1
(g2
g3
Ntp104
Rp105
(dp106
g7
S'cea.inputlocator.InputLocator.get_solar_radiation_folder'
p107
sg9
g75
sg11
g76
sg13
g65
sbtp108
a(g1
(g2
g3
Ntp109
Rp110
(dp111
g7
S'cea.demand.demand_main.demand_calculation'
p112
sg9
g10
sg11
g58
sg13
g14
sbg1
(g2
g3
Ntp113
Rp114
(dp115
g7
S'cea.utilities.epwreader.epw_reader'
p116
sg9
g19
sg11
S'epw_reader'
p117
sg13
g20
sbtp118
a(g1
(g2
g3
Ntp119
Rp120
(dp121
g7
S'cea.utilities.epwreader.epw_reader'
p122
sg9
g19
sg11
g117
sg13
g20
sbg1
(g2
g3
Ntp123
Rp124
(dp125
g7
S'cea.utilities.epwreader.calc_skytemp'
p126
sg9
g19
sg11
S'calc_skytemp'
p127
sg13
g20
sbtp128
a(g1
(g2
g3
Ntp129
Rp130
(dp131
g7
S'cea.demand.demand_main.demand_calculation'
p132
sg9
g10
sg11
g58
sg13
g14
sbg1
(g2
g3
Ntp133
Rp134
(dp135
g7
S'cea.demand.thermal_loads.BuildingProperties.__init__'
p136
sg9
S'cea\\demand\\thermal_loads.py'
p137
sg11
g31
sg13
S'cea.demand.thermal_loads'
p138
sbtp139
a(g1
(g2
g3
Ntp140
Rp141
(dp142
g7
S'cea.demand.thermal_loads.BuildingProperties.__init__'
p143
sg9
g137
sg11
g31
sg13
g138
sbg1
(g2
g3
Ntp144
Rp145
(dp146
g7
S'cea.globalvar.GlobalVariables.log'
p147
sg9
g30
sg11
S'log'
p148
sg13
g32
sbtp149
a(g1
(g2
g3
Ntp150
Rp151
(dp152
g7
S'cea.demand.thermal_loads.BuildingProperties.__init__'
p153
sg9
g137
sg11
g31
sg13
g138
sbg1
(g2
g3
Ntp154
Rp155
(dp156
g7
S'cea.inputlocator.InputLocator.get_surface_properties'
p157
sg9
g97
sg11
g98
sg13
g65
sbtp158
a(g1
(g2
g3
Ntp159
Rp160
(dp161
g7
S'cea.demand.thermal_loads.BuildingProperties.__init__'
p162
sg9
g137
sg11
g31
sg13
g138
sbg1
(g2
g3
Ntp163
Rp164
(dp165
g7
S'cea.inputlocator.InputLocator.get_zone_geometry'
p166
sg9
S'cea\\inputlocator.py'
p167
sg11
S'get_zone_geometry'
p168
sg13
g65
sbtp169
a(g1
(g2
g3
Ntp170
Rp171
(dp172
g7
S'cea.demand.thermal_loads.BuildingProperties.__init__'
p173
sg9
g137
sg11
g31
sg13
g138
sbg1
(g2
g3
Ntp174
Rp175
(dp176
g7
S'cea.inputlocator.InputLocator.get_building_hvac'
p177
sg9
S'cea\\inputlocator.py'
p178
sg11
S'get_building_hvac'
p179
sg13
g65
sbtp180
a(g1
(g2
g3
Ntp181
Rp182
(dp183
g7
S'cea.demand.thermal_loads.BuildingProperties.__init__'
p184
sg9
g137
sg11
g31
sg13
g138
sbg1
(g2
g3
Ntp185
Rp186
(dp187
g7
S'cea.inputlocator.InputLocator.get_building_thermal'
p188
sg9
S'cea\\inputlocator.py'
p189
sg11
S'get_building_thermal'
p190
sg13
g65
sbtp191
a(g1
(g2
g3
Ntp192
Rp193
(dp194
g7
S'cea.demand.thermal_loads.BuildingProperties.__init__'
p195
sg9
g137
sg11
g31
sg13
g138
sbg1
(g2
g3
Ntp196
Rp197
(dp198
g7
S'cea.inputlocator.InputLocator.get_building_occupancy'
p199
sg9
S'cea\\inputlocator.py'
p200
sg11
S'get_building_occupancy'
p201
sg13
g65
sbtp202
a(g1
(g2
g3
Ntp203
Rp204
(dp205
g7
S'cea.demand.thermal_loads.BuildingProperties.__init__'
p206
sg9
g137
sg11
g31
sg13
g138
sbg1
(g2
g3
Ntp207
Rp208
(dp209
g7
S'cea.inputlocator.InputLocator.get_building_architecture'
p210
sg9
S'cea\\inputlocator.py'
p211
sg11
S'get_building_architecture'
p212
sg13
g65
sbtp213
a(g1
(g2
g3
Ntp214
Rp215
(dp216
g7
S'cea.demand.thermal_loads.BuildingProperties.__init__'
p217
sg9
g137
sg11
g31
sg13
g138
sbg1
(g2
g3
Ntp218
Rp219
(dp220
g7
S'cea.inputlocator.InputLocator.get_building_age'
p221
sg9
S'cea\\inputlocator.py'
p222
sg11
S'get_building_age'
p223
sg13
g65
sbtp224
a(g1
(g2
g3
Ntp225
Rp226
(dp227
g7
S'cea.demand.thermal_loads.BuildingProperties.__init__'
p228
sg9
g137
sg11
g31
sg13
g138
sbg1
(g2
g3
Ntp229
Rp230
(dp231
g7
S'cea.inputlocator.InputLocator.get_building_comfort'
p232
sg9
S'cea\\inputlocator.py'
p233
sg11
S'get_building_comfort'
p234
sg13
g65
sbtp235
a(g1
(g2
g3
Ntp236
Rp237
(dp238
g7
S'cea.demand.thermal_loads.BuildingProperties.__init__'
p239
sg9
g137
sg11
g31
sg13
g138
sbg1
(g2
g3
Ntp240
Rp241
(dp242
g7
S'cea.inputlocator.InputLocator.get_building_internal'
p243
sg9
S'cea\\inputlocator.py'
p244
sg11
S'get_building_internal'
p245
sg13
g65
sbtp246
a(g1
(g2
g3
Ntp247
Rp248
(dp249
g7
S'cea.demand.thermal_loads.BuildingProperties.__init__'
p250
sg9
g137
sg11
g31
sg13
g138
sbg1
(g2
g3
Ntp251
Rp252
(dp253
g7
S'cea.demand.thermal_loads.get_prop_solar'
p254
sg9
g137
sg11
S'get_prop_solar'
p255
sg13
g138
sbtp256
a(g1
(g2
g3
Ntp257
Rp258
(dp259
g7
S'cea.demand.thermal_loads.get_prop_solar'
p260
sg9
g137
sg11
g255
sg13
g138
sbg1
(g2
g3
Ntp261
Rp262
(dp263
g7
S'cea.inputlocator.InputLocator.get_radiation'
p264
sg9
g63
sg11
g64
sg13
g65
sbtp265
a(g1
(g2
g3
Ntp266
Rp267
(dp268
g7
S'cea.demand.thermal_loads.get_prop_solar'
p269
sg9
g137
sg11
g255
sg13
g138
sbg1
(g2
g3
Ntp270
Rp271
(dp272
g7
S'cea.inputlocator.InputLocator.get_surface_properties'
p273
sg9
g97
sg11
g98
sg13
g65
sbtp274
a(g1
(g2
g3
Ntp275
Rp276
(dp277
g7
S'cea.demand.thermal_loads.BuildingProperties.__init__'
p278
sg9
g137
sg11
g31
sg13
g138
sbg1
(g2
g3
Ntp279
Rp280
(dp281
g7
S'cea.demand.thermal_loads.get_temperatures'
p282
sg9
g137
sg11
S'get_temperatures'
p283
sg13
g138
sbtp284
a(g1
(g2
g3
Ntp285
Rp286
(dp287
g7
S'cea.demand.thermal_loads.get_temperatures'
p288
sg9
g137
sg11
g283
sg13
g138
sbg1
(g2
g3
Ntp289
Rp290
(dp291
g7
S'cea.inputlocator.InputLocator.get_technical_emission_systems'
p292
sg9
S'cea\\inputlocator.py'
p293
sg11
S'get_technical_emission_systems'
p294
sg13
g65
sbtp295
a(g1
(g2
g3
Ntp296
Rp297
(dp298
g7
S'cea.demand.thermal_loads.BuildingProperties.__init__'
p299
sg9
g137
sg11
g31
sg13
g138
sbg1
(g2
g3
Ntp300
Rp301
(dp302
g7
S'cea.demand.thermal_loads.get_envelope_properties'
p303
sg9
g137
sg11
S'get_envelope_properties'
p304
sg13
g138
sbtp305
a(g1
(g2
g3
Ntp306
Rp307
(dp308
g7
S'cea.demand.thermal_loads.get_envelope_properties'
p309
sg9
g137
sg11
g304
sg13
g138
sbg1
(g2
g3
Ntp310
Rp311
(dp312
g7
S'cea.inputlocator.InputLocator.get_envelope_systems'
p313
sg9
S'cea\\inputlocator.py'
p314
sg11
S'get_envelope_systems'
p315
sg13
g65
sbtp316
a(g1
(g2
g3
Ntp317
Rp318
(dp319
g7
S'cea.demand.thermal_loads.BuildingProperties.__init__'
p320
sg9
g137
sg11
g31
sg13
g138
sbg1
(g2
g3
Ntp321
Rp322
(dp323
g7
S'cea.inputlocator.InputLocator.get_building_overrides'
p324
sg9
S'cea\\inputlocator.py'
p325
sg11
S'get_building_overrides'
p326
sg13
g65
sbtp327
a(g1
(g2
g3
Ntp328
Rp329
(dp330
g7
S'cea.demand.thermal_loads.BuildingProperties.__init__'
p331
sg9
g137
sg11
g31
sg13
g138
sbg1
(g2
g3
Ntp332
Rp333
(dp334
g7
S'cea.demand.thermal_loads.BuildingProperties.calc_prop_rc_model'
p335
sg9
g137
sg11
S'calc_prop_rc_model'
p336
sg13
g138
sbtp337
a(g1
(g2
g3
Ntp338
Rp339
(dp340
g7
S'cea.demand.thermal_loads.BuildingProperties.calc_prop_rc_model'
p341
sg9
g137
sg11
g336
sg13
g138
sbg1
(g2
g3
Ntp342
Rp343
(dp344
g7
S'cea.demand.thermal_loads.BuildingProperties.get_overrides_columns'
p345
sg9
g137
sg11
S'get_overrides_columns'
p346
sg13
g138
sbtp347
a(g1
(g2
g3
Ntp348
Rp349
(dp350
g7
S'cea.demand.thermal_loads.BuildingProperties.calc_prop_rc_model'
p351
sg9
g137
sg11
g336
sg13
g138
sbg1
(g2
g3
Ntp352
Rp353
(dp354
g7
S'cea.demand.thermal_loads.BuildingProperties.lookup_specific_heat_capacity'
p355
sg9
g137
sg11
S'lookup_specific_heat_capacity'
p356
sg13
g138
sbtp357
a(g1
(g2
g3
Ntp358
Rp359
(dp360
g7
S'cea.demand.thermal_loads.BuildingProperties.calc_prop_rc_model'
p361
sg9
g137
sg11
g336
sg13
g138
sbg1
(g2
g3
Ntp362
Rp363
(dp364
g7
S'cea.demand.thermal_loads.BuildingProperties.lookup_effective_mass_area_factor'
p365
sg9
g137
sg11
S'lookup_effective_mass_area_factor'
p366
sg13
g138
sbtp367
a(g1
(g2
g3
Ntp368
Rp369
(dp370
g7
S'cea.demand.thermal_loads.BuildingProperties.__init__'
p371
sg9
g137
sg11
g31
sg13
g138
sbg1
(g2
g3
Ntp372
Rp373
(dp374
g7
S'cea.geometry.geometry_reader.create_windows'
p375
sg9
S'cea\\geometry\\geometry_reader.py'
p376
sg11
S'create_windows'
p377
sg13
S'cea.geometry.geometry_reader'
p378
sbtp379
a(g1
(g2
g3
Ntp380
Rp381
(dp382
g7
S'cea.demand.demand_main.demand_calculation'
p383
sg9
g10
sg11
g58
sg13
g14
sbg1
(g2
g3
Ntp384
Rp385
(dp386
g7
S'cea.demand.occupancy_model.schedule_maker'
p387
sg9
S'cea\\demand\\occupancy_model.py'
p388
sg11
S'schedule_maker'
p389
sg13
S'cea.demand.occupancy_model'
p390
sbtp391
a(g1
(g2
g3
Ntp392
Rp393
(dp394
g7
S'cea.demand.occupancy_model.schedule_maker'
p395
sg9
g388
sg11
g389
sg13
g390
sbg1
(g2
g3
Ntp396
Rp397
(dp398
g7
S'cea.inputlocator.InputLocator.get_archetypes_schedules'
p399
sg9
S'cea\\inputlocator.py'
p400
sg11
S'get_archetypes_schedules'
p401
sg13
g65
sbtp402
a(g1
(g2
g3
Ntp403
Rp404
(dp405
g7
S'cea.demand.occupancy_model.schedule_maker'
p406
sg9
g388
sg11
g389
sg13
g390
sbg1
(g2
g3
Ntp407
Rp408
(dp409
g7
S'cea.demand.occupancy_model.read_schedules'
p410
sg9
g388
sg11
S'read_schedules'
p411
sg13
g390
sbtp412
a(g1
(g2
g3
Ntp413
Rp414
(dp415
g7
S'cea.demand.occupancy_model.schedule_maker'
p416
sg9
g388
sg11
g389
sg13
g390
sbg1
(g2
g3
Ntp417
Rp418
(dp419
g7
S'cea.demand.occupancy_model.get_yearly_vectors'
p420
sg9
g388
sg11
S'get_yearly_vectors'
p421
sg13
g390
sbtp422
a(g1
(g2
g3
Ntp423
Rp424
(dp425
g7
S'cea.demand.demand_main.demand_calculation'
p426
sg9
g10
sg11
g58
sg13
g14
sbg1
(g2
g3
Ntp427
Rp428
(dp429
g7
S'cea.demand.thermal_loads.BuildingProperties.list_building_names'
p430
sg9
g137
sg11
S'list_building_names'
p431
sg13
g138
sbtp432
a(g1
(g2
g3
Ntp433
Rp434
(dp435
g7
S'cea.demand.demand_main.demand_calculation'
p436
sg9
g10
sg11
g58
sg13
g14
sbg1
(g2
g3
Ntp437
Rp438
(dp439
g7
S'cea.demand.demand_main.thermal_loads_all_buildings'
p440
sg9
g10
sg11
S'thermal_loads_all_buildings'
p441
sg13
g14
sbtp442
a(g1
(g2
g3
Ntp443
Rp444
(dp445
g7
S'cea.demand.demand_main.thermal_loads_all_buildings'
p446
sg9
g10
sg11
g441
sg13
g14
sbg1
(g2
g3
Ntp447
Rp448
(dp449
g7
S'cea.demand.thermal_loads.BuildingProperties.__getitem__'
p450
sg9
g137
sg11
S'__getitem__'
p451
sg13
g138
sbtp452
a(g1
(g2
g3
Ntp453
Rp454
(dp455
g7
S'cea.demand.thermal_loads.BuildingProperties.__getitem__'
p456
sg9
g137
sg11
g451
sg13
g138
sbg1
(g2
g3
Ntp457
Rp458
(dp459
g7
S'cea.demand.thermal_loads.BuildingProperties.get_prop_geometry'
p460
sg9
g137
sg11
S'get_prop_geometry'
p461
sg13
g138
sbtp462
a(g1
(g2
g3
Ntp463
Rp464
(dp465
g7
S'cea.demand.thermal_loads.BuildingProperties.__getitem__'
p466
sg9
g137
sg11
g451
sg13
g138
sbg1
(g2
g3
Ntp467
Rp468
(dp469
g7
S'cea.demand.thermal_loads.BuildingProperties.get_prop_architecture'
p470
sg9
g137
sg11
S'get_prop_architecture'
p471
sg13
g138
sbtp472
a(g1
(g2
g3
Ntp473
Rp474
(dp475
g7
S'cea.demand.thermal_loads.BuildingProperties.__getitem__'
p476
sg9
g137
sg11
g451
sg13
g138
sbg1
(g2
g3
Ntp477
Rp478
(dp479
g7
S'cea.demand.thermal_loads.BuildingProperties.get_prop_occupancy'
p480
sg9
g137
sg11
S'get_prop_occupancy'
p481
sg13
g138
sbtp482
a(g1
(g2
g3
Ntp483
Rp484
(dp485
g7
S'cea.demand.thermal_loads.BuildingProperties.__getitem__'
p486
sg9
g137
sg11
g451
sg13
g138
sbg1
(g2
g3
Ntp487
Rp488
(dp489
g7
S'cea.demand.thermal_loads.BuildingProperties.get_prop_hvac'
p490
sg9
g137
sg11
S'get_prop_hvac'
p491
sg13
g138
sbtp492
a(g1
(g2
g3
Ntp493
Rp494
(dp495
g7
S'cea.demand.thermal_loads.BuildingProperties.__getitem__'
p496
sg9
g137
sg11
g451
sg13
g138
sbg1
(g2
g3
Ntp497
Rp498
(dp499
g7
S'cea.demand.thermal_loads.BuildingProperties.get_prop_rc_model'
p500
sg9
g137
sg11
S'get_prop_rc_model'
p501
sg13
g138
sbtp502
a(g1
(g2
g3
Ntp503
Rp504
(dp505
g7
S'cea.demand.thermal_loads.BuildingProperties.__getitem__'
p506
sg9
g137
sg11
g451
sg13
g138
sbg1
(g2
g3
Ntp507
Rp508
(dp509
g7
S'cea.demand.thermal_loads.BuildingProperties.get_prop_comfort'
p510
sg9
g137
sg11
S'get_prop_comfort'
p511
sg13
g138
sbtp512
a(g1
(g2
g3
Ntp513
Rp514
(dp515
g7
S'cea.demand.thermal_loads.BuildingProperties.__getitem__'
p516
sg9
g137
sg11
g451
sg13
g138
sbg1
(g2
g3
Ntp517
Rp518
(dp519
g7
S'cea.demand.thermal_loads.BuildingProperties.get_prop_internal_loads'
p520
sg9
g137
sg11
S'get_prop_internal_loads'
p521
sg13
g138
sbtp522
a(g1
(g2
g3
Ntp523
Rp524
(dp525
g7
S'cea.demand.thermal_loads.BuildingProperties.__getitem__'
p526
sg9
g137
sg11
g451
sg13
g138
sbg1
(g2
g3
Ntp527
Rp528
(dp529
g7
S'cea.demand.thermal_loads.BuildingProperties.get_prop_age'
p530
sg9
g137
sg11
S'get_prop_age'
p531
sg13
g138
sbtp532
a(g1
(g2
g3
Ntp533
Rp534
(dp535
g7
S'cea.demand.thermal_loads.BuildingProperties.__getitem__'
p536
sg9
g137
sg11
g451
sg13
g138
sbg1
(g2
g3
Ntp537
Rp538
(dp539
g7
S'cea.demand.thermal_loads.BuildingProperties.get_solar'
p540
sg9
g137
sg11
S'get_solar'
p541
sg13
g138
sbtp542
a(g1
(g2
g3
Ntp543
Rp544
(dp545
g7
S'cea.demand.thermal_loads.BuildingProperties.__getitem__'
p546
sg9
g137
sg11
g451
sg13
g138
sbg1
(g2
g3
Ntp547
Rp548
(dp549
g7
S'cea.demand.thermal_loads.BuildingProperties.get_prop_windows'
p550
sg9
g137
sg11
S'get_prop_windows'
p551
sg13
g138
sbtp552
a(g1
(g2
g3
Ntp553
Rp554
(dp555
g7
S'cea.demand.thermal_loads.BuildingProperties.__getitem__'
p556
sg9
g137
sg11
g451
sg13
g138
sbg1
(g2
g3
Ntp557
Rp558
(dp559
g7
S'cea.demand.thermal_loads.BuildingPropertiesRow.__init__'
p560
sg9
g137
sg11
g31
sg13
g138
sbtp561
a(g1
(g2
g3
Ntp562
Rp563
(dp564
g7
S'cea.demand.thermal_loads.BuildingPropertiesRow.__init__'
p565
sg9
g137
sg11
g31
sg13
g138
sbg1
(g2
g3
Ntp566
Rp567
(dp568
g7
S'cea.demand.thermal_loads.BuildingPropertiesRow._get_properties_building_systems'
p569
sg9
g137
sg11
S'_get_properties_building_systems'
p570
sg13
g138
sbtp571
a(g1
(g2
g3
Ntp572
Rp573
(dp574
g7
S'cea.demand.thermal_loads.BuildingPropertiesRow._get_properties_building_systems'
p575
sg9
g137
sg11
g570
sg13
g138
sbg1
(g2
g3
Ntp576
Rp577
(dp578
g7
S'cea.demand.thermal_loads.BuildingPropertiesRow._calculate_pipe_transmittance_values'
p579
sg9
g137
sg11
S'_calculate_pipe_transmittance_values'
p580
sg13
g138
sbtp581
a(g1
(g2
g3
Ntp582
Rp583
(dp584
g7
S'cea.demand.thermal_loads.BuildingPropertiesRow._get_properties_building_systems'
p585
sg9
g137
sg11
g570
sg13
g138
sbg1
(g2
g3
Ntp586
Rp587
(dp588
g7
S'cea.demand.thermal_loads.BuildingPropertiesRow._calc_form'
p589
sg9
g137
sg11
S'_calc_form'
p590
sg13
g138
sbtp591
a(g1
(g2
g3
Ntp592
Rp593
(dp594
g7
S'cea.demand.demand_main.thermal_loads_all_buildings'
p595
sg9
g10
sg11
g441
sg13
g14
sbg1
(g2
g3
Ntp596
Rp597
(dp598
g7
S'cea.demand.thermal_loads.calc_thermal_loads'
p599
sg9
g137
sg11
S'calc_thermal_loads'
p600
sg13
g138
sbtp601
a(g1
(g2
g3
Ntp602
Rp603
(dp604
g7
S'cea.demand.thermal_loads.calc_thermal_loads'
p605
sg9
g137
sg11
g600
sg13
g138
sbg1
(g2
g3
Ntp606
Rp607
(dp608
g7
S'cea.demand.thermal_loads.initialize_timestep_data'
p609
sg9
g137
sg11
S'initialize_timestep_data'
p610
sg13
g138
sbtp611
a(g1
(g2
g3
Ntp612
Rp613
(dp614
g7
S'cea.demand.thermal_loads.initialize_timestep_data'
p615
sg9
g137
sg11
g610
sg13
g138
sbg1
(g2
g3
Ntp616
Rp617
(dp618
g7
S'cea.demand.thermal_loads.<genexpr>'
p619
sg9
g137
sg11
S'<genexpr>'
p620
sg13
g138
sbtp621
a(g1
(g2
g3
Ntp622
Rp623
(dp624
g7
S'cea.demand.thermal_loads.calc_thermal_loads'
p625
sg9
g137
sg11
g600
sg13
g138
sbg1
(g2
g3
Ntp626
Rp627
(dp628
g7
S'cea.demand.occupancy_model.calc_occ'
p629
sg9
g388
sg11
S'calc_occ'
p630
sg13
g390
sbtp631
a(g1
(g2
g3
Ntp632
Rp633
(dp634
g7
S'cea.demand.occupancy_model.calc_occ'
p635
sg9
g388
sg11
g630
sg13
g390
sbg1
(g2
g3
Ntp636
Rp637
(dp638
g7
S'cea.demand.occupancy_model.calc_occ_schedule'
p639
sg9
g388
sg11
S'calc_occ_schedule'
p640
sg13
g390
sbtp641
a(g1
(g2
g3
Ntp642
Rp643
(dp644
g7
S'cea.demand.occupancy_model.calc_occ_schedule'
p645
sg9
g388
sg11
g640
sg13
g390
sbg1
(g2
g3
Ntp646
Rp647
(dp648
g7
S'cea.demand.occupancy_model.calc_average'
p649
sg9
g388
sg11
S'calc_average'
p650
sg13
g390
sbtp651
a(g1
(g2
g3
Ntp652
Rp653
(dp654
g7
S'cea.demand.thermal_loads.calc_thermal_loads'
p655
sg9
g137
sg11
g600
sg13
g138
sbg1
(g2
g3
Ntp656
Rp657
(dp658
g7
S'cea.demand.electrical_loads.calc_Eint'
p659
sg9
S'cea\\demand\\electrical_loads.py'
p660
sg11
S'calc_Eint'
p661
sg13
S'cea.demand.electrical_loads'
p662
sbtp663
a(g1
(g2
g3
Ntp664
Rp665
(dp666
g7
S'cea.demand.electrical_loads.calc_Eint'
p667
sg9
g660
sg11
g661
sg13
g662
sbg1
(g2
g3
Ntp668
Rp669
(dp670
g7
S'cea.demand.electrical_loads.average_appliances_lighting_schedule'
p671
sg9
g660
sg11
S'average_appliances_lighting_schedule'
p672
sg13
g662
sbtp673
a(g1
(g2
g3
Ntp674
Rp675
(dp676
g7
S'cea.demand.electrical_loads.average_appliances_lighting_schedule'
p677
sg9
g660
sg11
g672
sg13
g662
sbg1
(g2
g3
Ntp678
Rp679
(dp680
g7
S'cea.demand.electrical_loads.calc_average'
p681
sg9
g660
sg11
g650
sg13
g662
sbtp682
a(g1
(g2
g3
Ntp683
Rp684
(dp685
g7
S'cea.demand.thermal_loads.calc_thermal_loads'
p686
sg9
g137
sg11
g600
sg13
g138
sbg1
(g2
g3
Ntp687
Rp688
(dp689
g7
S'cea.demand.refrigeration_loads.calc_Qcref'
p690
sg9
S'cea\\demand\\refrigeration_loads.py'
p691
sg11
S'calc_Qcref'
p692
sg13
S'cea.demand.refrigeration_loads'
p693
sbtp694
a(g1
(g2
g3
Ntp695
Rp696
(dp697
g7
S'cea.demand.thermal_loads.calc_thermal_loads'
p698
sg9
g137
sg11
g600
sg13
g138
sbg1
(g2
g3
Ntp699
Rp700
(dp701
g7
S'cea.demand.datacenter_loads.calc_Qcdataf'
p702
sg9
S'cea\\demand\\datacenter_loads.py'
p703
sg11
S'calc_Qcdataf'
p704
sg13
S'cea.demand.datacenter_loads'
p705
sbtp706
a(g1
(g2
g3
Ntp707
Rp708
(dp709
g7
S'cea.demand.thermal_loads.calc_thermal_loads'
p710
sg9
g137
sg11
g600
sg13
g138
sbg1
(g2
g3
Ntp711
Rp712
(dp713
g7
S'cea.technologies.controllers.calc_simple_temp_control'
p714
sg9
S'cea\\technologies\\controllers.py'
p715
sg11
S'calc_simple_temp_control'
p716
sg13
S'cea.technologies.controllers'
p717
sbtp718
a(g1
(g2
g3
Ntp719
Rp720
(dp721
g7
S'cea.technologies.controllers.calc_simple_temp_control'
p722
sg9
g715
sg11
g716
sg13
g717
sbg1
(g2
g3
Ntp723
Rp724
(dp725
g7
S'cea.technologies.controllers.get_hsetpoint'
p726
sg9
g715
sg11
S'get_hsetpoint'
p727
sg13
g717
sbtp728
a(g1
(g2
g3
Ntp729
Rp730
(dp731
g7
S'cea.technologies.controllers.calc_simple_temp_control'
p732
sg9
g715
sg11
g716
sg13
g717
sbg1
(g2
g3
Ntp733
Rp734
(dp735
g7
S'cea.technologies.controllers.get_csetpoint'
p736
sg9
g715
sg11
S'get_csetpoint'
p737
sg13
g717
sbtp738
a(g1
(g2
g3
Ntp739
Rp740
(dp741
g7
S'cea.demand.thermal_loads.calc_thermal_loads'
p742
sg9
g137
sg11
g600
sg13
g138
sbg1
(g2
g3
Ntp743
Rp744
(dp745
g7
S'cea.technologies.controllers.calc_simple_ventilation_control'
p746
sg9
g715
sg11
S'calc_simple_ventilation_control'
p747
sg13
g717
sbtp748
a(g1
(g2
g3
Ntp749
Rp750
(dp751
g7
S'cea.technologies.controllers.calc_simple_ventilation_control'
p752
sg9
g715
sg11
g747
sg13
g717
sbg1
(g2
g3
Ntp753
Rp754
(dp755
g7
S'cea.globalvar.GlobalVariables.is_heating_season'
p756
sg9
g30
sg11
S'is_heating_season'
p757
sg13
g32
sbtp758
a(g1
(g2
g3
Ntp759
Rp760
(dp761
g7
S'cea.demand.thermal_loads.calc_thermal_loads'
p762
sg9
g137
sg11
g600
sg13
g138
sbg1
(g2
g3
Ntp763
Rp764
(dp765
g7
S'cea.demand.sensible_loads.calc_Qgain_lat'
p766
sg9
S'cea\\demand\\sensible_loads.py'
p767
sg11
S'calc_Qgain_lat'
p768
sg13
S'cea.demand.sensible_loads'
p769
sbtp770
a(g1
(g2
g3
Ntp771
Rp772
(dp773
g7
S'cea.demand.thermal_loads.calc_thermal_loads'
p774
sg9
g137
sg11
g600
sg13
g138
sbg1
(g2
g3
Ntp775
Rp776
(dp777
g7
S'cea.demand.ventilation_model.get_properties_natural_ventilation'
p778
sg9
S'cea\\demand\\ventilation_model.py'
p779
sg11
S'get_properties_natural_ventilation'
p780
sg13
S'cea.demand.ventilation_model'
p781
sbtp782
a(g1
(g2
g3
Ntp783
Rp784
(dp785
g7
S'cea.demand.ventilation_model.get_properties_natural_ventilation'
p786
sg9
g779
sg11
g780
sg13
g781
sbg1
(g2
g3
Ntp787
Rp788
(dp789
g7
S'cea.demand.ventilation_model.calc_qv_delta_p_ref'
p790
sg9
g779
sg11
S'calc_qv_delta_p_ref'
p791
sg13
g781
sbtp792
a(g1
(g2
g3
Ntp793
Rp794
(dp795
g7
S'cea.demand.ventilation_model.get_properties_natural_ventilation'
p796
sg9
g779
sg11
g780
sg13
g781
sbg1
(g2
g3
Ntp797
Rp798
(dp799
g7
S'cea.geometry.geometry_reader.get_building_geometry_ventilation'
p800
sg9
g376
sg11
S'get_building_geometry_ventilation'
p801
sg13
g378
sbtp802
a(g1
(g2
g3
Ntp803
Rp804
(dp805
g7
S'cea.demand.ventilation_model.get_properties_natural_ventilation'
p806
sg9
g779
sg11
g780
sg13
g781
sbg1
(g2
g3
Ntp807
Rp808
(dp809
g7
S'cea.demand.ventilation_model.calc_coeff_lea_zone'
p810
sg9
g779
sg11
S'calc_coeff_lea_zone'
p811
sg13
g781
sbtp812
a(g1
(g2
g3
Ntp813
Rp814
(dp815
g7
S'cea.demand.ventilation_model.get_properties_natural_ventilation'
p816
sg9
g779
sg11
g780
sg13
g781
sbg1
(g2
g3
Ntp817
Rp818
(dp819
g7
S'cea.demand.ventilation_model.allocate_default_leakage_paths'
p820
sg9
g779
sg11
S'allocate_default_leakage_paths'
p821
sg13
g781
sbtp822
a(g1
(g2
g3
Ntp823
Rp824
(dp825
g7
S'cea.demand.ventilation_model.get_properties_natural_ventilation'
p826
sg9
g779
sg11
g780
sg13
g781
sbg1
(g2
g3
Ntp827
Rp828
(dp829
g7
S'cea.demand.ventilation_model.lookup_coeff_wind_pressure'
p830
sg9
g779
sg11
S'lookup_coeff_wind_pressure'
p831
sg13
g781
sbtp832
a(g1
(g2
g3
Ntp833
Rp834
(dp835
g7
S'cea.demand.ventilation_model.get_properties_natural_ventilation'
p836
sg9
g779
sg11
g780
sg13
g781
sbg1
(g2
g3
Ntp837
Rp838
(dp839
g7
S'cea.demand.ventilation_model.calc_coeff_vent_zone'
p840
sg9
g779
sg11
S'calc_coeff_vent_zone'
p841
sg13
g781
sbtp842
a(g1
(g2
g3
Ntp843
Rp844
(dp845
g7
S'cea.demand.ventilation_model.get_properties_natural_ventilation'
p846
sg9
g779
sg11
g780
sg13
g781
sbg1
(g2
g3
Ntp847
Rp848
(dp849
g7
S'cea.demand.ventilation_model.allocate_default_ventilation_openings'
p850
sg9
g779
sg11
S'allocate_default_ventilation_openings'
p851
sg13
g781
sbtp852
a(g1
(g2
g3
Ntp853
Rp854
(dp855
g7
S'cea.demand.thermal_loads.calc_thermal_loads'
p856
sg9
g137
sg11
g600
sg13
g138
sbg1
(g2
g3
Ntp857
Rp858
(dp859
g7
S'cea.utilities.helpers.seasonhour_2_hoy'
p860
sg9
S'cea\\utilities\\helpers.py'
p861
sg11
S'seasonhour_2_hoy'
p862
sg13
S'cea.utilities.helpers'
p863
sbtp864
a(g1
(g2
g3
Ntp865
Rp866
(dp867
g7
S'cea.utilities.helpers.seasonhour_2_hoy'
p868
sg9
g861
sg11
g862
sg13
g863
sbg1
(g2
g3
Ntp869
Rp870
(dp871
g7
S'cea.utilities.helpers.check_hoy'
p872
sg9
g861
sg11
S'check_hoy'
p873
sg13
g863
sbtp874
a(g1
(g2
g3
Ntp875
Rp876
(dp877
g7
S'cea.demand.thermal_loads.calc_thermal_loads'
p878
sg9
g137
sg11
g600
sg13
g138
sbg1
(g2
g3
Ntp879
Rp880
(dp881
g7
S'cea.demand.sensible_loads.calc_Qgain_sen'
p882
sg9
g767
sg11
S'calc_Qgain_sen'
p883
sg13
g769
sbtp884
a(g1
(g2
g3
Ntp885
Rp886
(dp887
g7
S'cea.demand.sensible_loads.calc_Qgain_sen'
p888
sg9
g767
sg11
g883
sg13
g769
sbg1
(g2
g3
Ntp889
Rp890
(dp891
g7
S'cea.demand.sensible_loads.calc_I_sol'
p892
sg9
g767
sg11
S'calc_I_sol'
p893
sg13
g769
sbtp894
a(g1
(g2
g3
Ntp895
Rp896
(dp897
g7
S'cea.demand.sensible_loads.calc_I_sol'
p898
sg9
g767
sg11
g893
sg13
g769
sbg1
(g2
g3
Ntp899
Rp900
(dp901
g7
S'cea.demand.sensible_loads.calc_Asol'
p902
sg9
g767
sg11
S'calc_Asol'
p903
sg13
g769
sbtp904
a(g1
(g2
g3
Ntp905
Rp906
(dp907
g7
S'cea.demand.sensible_loads.calc_Asol'
p908
sg9
g767
sg11
g903
sg13
g769
sbg1
(g2
g3
Ntp909
Rp910
(dp911
g7
S'cea.technologies.blinds.<module>'
p912
sg9
S'cea\\technologies\\blinds.py'
p913
sg11
g12
sg13
S'cea.technologies.blinds'
p914
sbtp915
a(g1
(g2
g3
Ntp916
Rp917
(dp918
g7
S'cea.demand.sensible_loads.calc_Asol'
p919
sg9
g767
sg11
g903
sg13
g769
sbg1
(g2
g3
Ntp920
Rp921
(dp922
g7
S'cea.technologies.blinds.calc_blinds_activation'
p923
sg9
g913
sg11
S'calc_blinds_activation'
p924
sg13
g914
sbtp925
a(g1
(g2
g3
Ntp926
Rp927
(dp928
g7
S'cea.demand.sensible_loads.calc_I_sol'
p929
sg9
g767
sg11
g893
sg13
g769
sbg1
(g2
g3
Ntp930
Rp931
(dp932
g7
S'cea.demand.sensible_loads.calc_I_rad'
p933
sg9
g767
sg11
S'calc_I_rad'
p934
sg13
g769
sbtp935
a(g1
(g2
g3
Ntp936
Rp937
(dp938
g7
S'cea.demand.sensible_loads.calc_I_rad'
p939
sg9
g767
sg11
g934
sg13
g769
sbg1
(g2
g3
Ntp940
Rp941
(dp942
g7
S'cea.demand.sensible_loads.calc_hr'
p943
sg9
g767
sg11
S'calc_hr'
p944
sg13
g769
sbtp945
a(g1
(g2
g3
Ntp946
Rp947
(dp948
g7
S'cea.demand.thermal_loads.calc_thermal_loads'
p949
sg9
g137
sg11
g600
sg13
g138
sbg1
(g2
g3
Ntp950
Rp951
(dp952
g7
S'cea.globalvar.GlobalVariables.is_heating_season'
p953
sg9
g30
sg11
g757
sg13
g32
sbtp954
a(g1
(g2
g3
Ntp955
Rp956
(dp957
g7
S'cea.demand.thermal_loads.calc_thermal_loads'
p958
sg9
g137
sg11
g600
sg13
g138
sbg1
(g2
g3
Ntp959
Rp960
(dp961
g7
S'cea.demand.thermal_loads.calc_thermal_load_hvac'
p962
sg9
g137
sg11
S'calc_thermal_load_hvac'
p963
sg13
g138
sbtp964
a(g1
(g2
g3
Ntp965
Rp966
(dp967
g7
S'cea.demand.thermal_loads.calc_thermal_load_hvac'
p968
sg9
g137
sg11
g963
sg13
g138
sbg1
(g2
g3
Ntp969
Rp970
(dp971
g7
S'cea.demand.sensible_loads.setpoint_correction_for_space_emission_systems'
p972
sg9
g767
sg11
S'setpoint_correction_for_space_emission_systems'
p973
sg13
g769
sbtp974
a(g1
(g2
g3
Ntp975
Rp976
(dp977
g7
S'cea.demand.thermal_loads.calc_thermal_load_hvac'
p978
sg9
g137
sg11
g963
sg13
g138
sbg1
(g2
g3
Ntp979
Rp980
(dp981
g7
S'cea.demand.sensible_loads.calc_Qhs_Qcs_sys_max'
p982
sg9
g767
sg11
S'calc_Qhs_Qcs_sys_max'
p983
sg13
g769
sbtp984
a(g1
(g2
g3
Ntp985
Rp986
(dp987
g7
S'cea.demand.thermal_loads.calc_thermal_load_hvac'
p988
sg9
g137
sg11
g963
sg13
g138
sbg1
(g2
g3
Ntp989
Rp990
(dp991
g7
S'cea.demand.airconditioning_model.calc_hex'
p992
sg9
S'cea\\demand\\airconditioning_model.py'
p993
sg11
S'calc_hex'
p994
sg13
S'cea.demand.airconditioning_model'
p995
sbtp996
a(g1
(g2
g3
Ntp997
Rp998
(dp999
g7
S'cea.demand.airconditioning_model.calc_hex'
p1000
sg9
g993
sg11
g994
sg13
g995
sbg1
(g2
g3
Ntp1001
Rp1002
(dp1003
g7
S'cea.utilities.physics.calc_w'
p1004
sg9
S'cea\\utilities\\physics.py'
p1005
sg11
S'calc_w'
p1006
sg13
S'cea.utilities.physics'
p1007
sbtp1008
a(g1
(g2
g3
Ntp1009
Rp1010
(dp1011
g7
S'cea.demand.thermal_loads.calc_thermal_load_hvac'
p1012
sg9
g137
sg11
g963
sg13
g138
sbg1
(g2
g3
Ntp1013
Rp1014
(dp1015
g7
S'cea.demand.sensible_loads.calc_h_ve_adj'
p1016
sg9
g767
sg11
S'calc_h_ve_adj'
p1017
sg13
g769
sbtp1018
a(g1
(g2
g3
Ntp1019
Rp1020
(dp1021
g7
S'cea.demand.thermal_loads.calc_thermal_load_hvac'
p1022
sg9
g137
sg11
g963
sg13
g138
sbg1
(g2
g3
Ntp1023
Rp1024
(dp1025
g7
S'cea.demand.sensible_loads.calc_Htr'
p1026
sg9
g767
sg11
S'calc_Htr'
p1027
sg13
g769
sbtp1028
a(g1
(g2
g3
Ntp1029
Rp1030
(dp1031
g7
S'cea.demand.thermal_loads.calc_thermal_load_hvac'
p1032
sg9
g137
sg11
g963
sg13
g138
sbg1
(g2
g3
Ntp1033
Rp1034
(dp1035
g7
S'cea.demand.sensible_loads.calc_Qhs_Qcs'
p1036
sg9
g767
sg11
S'calc_Qhs_Qcs'
p1037
sg13
g769
sbtp1038
a(g1
(g2
g3
Ntp1039
Rp1040
(dp1041
g7
S'cea.demand.thermal_loads.calc_thermal_load_hvac'
p1042
sg9
g137
sg11
g963
sg13
g138
sbg1
(g2
g3
Ntp1043
Rp1044
(dp1045
g7
S'cea.demand.airconditioning_model.calc_hvac'
p1046
sg9
g993
sg11
S'calc_hvac'
p1047
sg13
g995
sbtp1048
a(g1
(g2
g3
Ntp1049
Rp1050
(dp1051
g7
S'cea.demand.airconditioning_model.calc_hvac'
p1052
sg9
g993
sg11
g1047
sg13
g995
sbg1
(g2
g3
Ntp1053
Rp1054
(dp1055
g7
S'cea.demand.airconditioning_model.calc_hex'
p1056
sg9
g993
sg11
g994
sg13
g995
sbtp1057
a(g1
(g2
g3
Ntp1058
Rp1059
(dp1060
g7
S'cea.demand.airconditioning_model.calc_hex'
p1061
sg9
g993
sg11
g994
sg13
g995
sbg1
(g2
g3
Ntp1062
Rp1063
(dp1064
g7
S'cea.globalvar.GlobalVariables.is_heating_season'
p1065
sg9
g30
sg11
g757
sg13
g32
sbtp1066
a(g1
(g2
g3
Ntp1067
Rp1068
(dp1069
g7
S'cea.demand.airconditioning_model.calc_hvac'
p1070
sg9
g993
sg11
g1047
sg13
g995
sbg1
(g2
g3
Ntp1071
Rp1072
(dp1073
g7
S'cea.utilities.physics.calc_h'
p1074
sg9
g1005
sg11
S'calc_h'
p1075
sg13
g1007
sbtp1076
a(g1
(g2
g3
Ntp1077
Rp1078
(dp1079
g7
S'cea.demand.airconditioning_model.calc_hvac'
p1080
sg9
g993
sg11
g1047
sg13
g995
sbg1
(g2
g3
Ntp1081
Rp1082
(dp1083
g7
S'cea.utilities.physics.calc_t_from_h'
p1084
sg9
g1005
sg11
S'calc_t_from_h'
p1085
sg13
g1007
sbtp1086
a(g1
(g2
g3
Ntp1087
Rp1088
(dp1089
g7
S'cea.demand.airconditioning_model.calc_hvac'
p1090
sg9
g993
sg11
g1047
sg13
g995
sbg1
(g2
g3
Ntp1091
Rp1092
(dp1093
g7
S'cea.demand.airconditioning_model.calc_w3_cooling_case'
p1094
sg9
g993
sg11
S'calc_w3_cooling_case'
p1095
sg13
g995
sbtp1096
a(g1
(g2
g3
Ntp1097
Rp1098
(dp1099
g7
S'cea.demand.airconditioning_model.calc_w3_cooling_case'
p1100
sg9
g993
sg11
g1095
sg13
g995
sbg1
(g2
g3
Ntp1101
Rp1102
(dp1103
g7
S'cea.utilities.physics.calc_w'
p1104
sg9
g1005
sg11
g1006
sg13
g1007
sbtp1105
a(g1
(g2
g3
Ntp1106
Rp1107
(dp1108
g7
S'cea.demand.thermal_loads.calc_thermal_loads'
p1109
sg9
g137
sg11
g600
sg13
g138
sbg1
(g2
g3
Ntp1110
Rp1111
(dp1112
g7
S'cea.demand.thermal_loads.calc_thermal_load_mechanical_and_natural_ventilation_timestep'
p1113
sg9
g137
sg11
S'calc_thermal_load_mechanical_and_natural_ventilation_timestep'
p1114
sg13
g138
sbtp1115
a(g1
(g2
g3
Ntp1116
Rp1117
(dp1118
g7
S'cea.demand.thermal_loads.calc_thermal_load_mechanical_and_natural_ventilation_timestep'
p1119
sg9
g137
sg11
g1114
sg13
g138
sbg1
(g2
g3
Ntp1120
Rp1121
(dp1122
g7
S'cea.demand.sensible_loads.setpoint_correction_for_space_emission_systems'
p1123
sg9
g767
sg11
g973
sg13
g769
sbtp1124
a(g1
(g2
g3
Ntp1125
Rp1126
(dp1127
g7
S'cea.demand.thermal_loads.calc_thermal_load_mechanical_and_natural_ventilation_timestep'
p1128
sg9
g137
sg11
g1114
sg13
g138
sbg1
(g2
g3
Ntp1129
Rp1130
(dp1131
g7
S'cea.demand.sensible_loads.calc_Qhs_Qcs_sys_max'
p1132
sg9
g767
sg11
g983
sg13
g769
sbtp1133
a(g1
(g2
g3
Ntp1134
Rp1135
(dp1136
g7
S'cea.demand.thermal_loads.calc_thermal_load_mechanical_and_natural_ventilation_timestep'
p1137
sg9
g137
sg11
g1114
sg13
g138
sbg1
(g2
g3
Ntp1138
Rp1139
(dp1140
g7
S'cea.demand.sensible_loads.calc_h_ve_adj'
p1141
sg9
g767
sg11
g1017
sg13
g769
sbtp1142
a(g1
(g2
g3
Ntp1143
Rp1144
(dp1145
g7
S'cea.demand.thermal_loads.calc_thermal_load_mechanical_and_natural_ventilation_timestep'
p1146
sg9
g137
sg11
g1114
sg13
g138
sbg1
(g2
g3
Ntp1147
Rp1148
(dp1149
g7
S'cea.demand.sensible_loads.calc_Htr'
p1150
sg9
g767
sg11
g1027
sg13
g769
sbtp1151
a(g1
(g2
g3
Ntp1152
Rp1153
(dp1154
g7
S'cea.demand.thermal_loads.calc_thermal_load_mechanical_and_natural_ventilation_timestep'
p1155
sg9
g137
sg11
g1114
sg13
g138
sbg1
(g2
g3
Ntp1156
Rp1157
(dp1158
g7
S'cea.demand.sensible_loads.calc_Qhs_Qcs'
p1159
sg9
g767
sg11
g1037
sg13
g769
sbtp1160
a(g1
(g2
g3
Ntp1161
Rp1162
(dp1163
g7
S'cea.demand.thermal_loads.calc_thermal_loads'
p1164
sg9
g137
sg11
g600
sg13
g138
sbg1
(g2
g3
Ntp1165
Rp1166
(dp1167
g7
S'cea.demand.sensible_loads.calc_Qhs_Qcs_dis_ls'
p1168
sg9
g767
sg11
S'calc_Qhs_Qcs_dis_ls'
p1169
sg13
g769
sbtp1170
a(g1
(g2
g3
Ntp1171
Rp1172
(dp1173
g7
S'cea.demand.thermal_loads.calc_thermal_loads'
p1174
sg9
g137
sg11
g600
sg13
g138
sbg1
(g2
g3
Ntp1175
Rp1176
(dp1177
g7
S'cea.demand.sensible_loads.calc_temperatures_emission_systems'
p1178
sg9
g767
sg11
S'calc_temperatures_emission_systems'
p1179
sg13
g769
sbtp1180
a(g1
(g2
g3
Ntp1181
Rp1182
(dp1183
g7
S'cea.demand.sensible_loads.calc_temperatures_emission_systems'
p1184
sg9
g767
sg11
g1179
sg13
g769
sbg1
(g2
g3
Ntp1185
Rp1186
(dp1187
g7
S'cea.technologies.radiators.<module>'
p1188
sg9
S'cea\\technologies\\radiators.py'
p1189
sg11
g12
sg13
S'cea.technologies.radiators'
p1190
sbtp1191
a(g1
(g2
g3
Ntp1192
Rp1193
(dp1194
g7
S'cea.demand.sensible_loads.calc_temperatures_emission_systems'
p1195
sg9
g767
sg11
g1179
sg13
g769
sbg1
(g2
g3
Ntp1196
Rp1197
(dp1198
g7
S'cea.technologies.heating_coils.<module>'
p1199
sg9
S'cea\\technologies\\heating_coils.py'
p1200
sg11
g12
sg13
S'cea.technologies.heating_coils'
p1201
sbtp1202
a(g1
(g2
g3
Ntp1203
Rp1204
(dp1205
g7
S'cea.demand.sensible_loads.calc_temperatures_emission_systems'
p1206
sg9
g767
sg11
g1179
sg13
g769
sbg1
(g2
g3
Ntp1207
Rp1208
(dp1209
g7
S'cea.technologies.tabs.<module>'
p1210
sg9
S'cea\\technologies\\tabs.py'
p1211
sg11
g12
sg13
S'cea.technologies.tabs'
p1212
sbtp1213
a(g1
(g2
g3
Ntp1214
Rp1215
(dp1216
g7
S'cea.demand.sensible_loads.calc_temperatures_emission_systems'
p1217
sg9
g767
sg11
g1179
sg13
g769
sbg1
(g2
g3
Ntp1218
Rp1219
(dp1220
g7
S'cea.technologies.radiators.calc_radiator'
p1221
sg9
g1189
sg11
S'calc_radiator'
p1222
sg13
g1190
sbtp1223
a(g1
(g2
g3
Ntp1224
Rp1225
(dp1226
g7
S'cea.demand.sensible_loads.calc_temperatures_emission_systems'
p1227
sg9
g767
sg11
g1179
sg13
g769
sbg1
(g2
g3
Ntp1228
Rp1229
(dp1230
g7
S'cea.technologies.heating_coils.calc_cooling_coil'
p1231
sg9
g1200
sg11
S'calc_cooling_coil'
p1232
sg13
g1201
sbtp1233
a(g1
(g2
g3
Ntp1234
Rp1235
(dp1236
g7
S'cea.technologies.heating_coils.calc_cooling_coil'
p1237
sg9
g1200
sg11
g1232
sg13
g1201
sbg1
(g2
g3
Ntp1238
Rp1239
(dp1240
g7
S'cea.technologies.heating_coils.fh'
p1241
sg9
g1200
sg11
S'fh'
p1242
sg13
g1201
sbtp1243
a(g1
(g2
g3
Ntp1244
Rp1245
(dp1246
g7
S'cea.demand.thermal_loads.calc_thermal_loads'
p1247
sg9
g137
sg11
g600
sg13
g138
sbg1
(g2
g3
Ntp1248
Rp1249
(dp1250
g7
S'cea.demand.hotwater_loads.calc_Qwwf'
p1251
sg9
S'cea\\demand\\hotwater_loads.py'
p1252
sg11
S'calc_Qwwf'
p1253
sg13
S'cea.demand.hotwater_loads'
p1254
sbtp1255
a(g1
(g2
g3
Ntp1256
Rp1257
(dp1258
g7
S'cea.demand.hotwater_loads.calc_Qwwf'
p1259
sg9
g1252
sg11
g1253
sg13
g1254
sbg1
(g2
g3
Ntp1260
Rp1261
(dp1262
g7
S'cea.demand.hotwater_loads.calc_Qww_schedule'
p1263
sg9
g1252
sg11
S'calc_Qww_schedule'
p1264
sg13
g1254
sbtp1265
a(g1
(g2
g3
Ntp1266
Rp1267
(dp1268
g7
S'cea.demand.hotwater_loads.calc_Qww_schedule'
p1269
sg9
g1252
sg11
g1264
sg13
g1254
sbg1
(g2
g3
Ntp1270
Rp1271
(dp1272
g7
S'cea.demand.hotwater_loads.calc_average'
p1273
sg9
g1252
sg11
g650
sg13
g1254
sbtp1274
a(g1
(g2
g3
Ntp1275
Rp1276
(dp1277
g7
S'cea.demand.hotwater_loads.calc_Qwwf'
p1278
sg9
g1252
sg11
g1253
sg13
g1254
sbg1
(g2
g3
Ntp1279
Rp1280
(dp1281
g7
S'cea.demand.hotwater_loads.calc_mww'
p1282
sg9
g1252
sg11
S'calc_mww'
p1283
sg13
g1254
sbtp1284
a(g1
(g2
g3
Ntp1285
Rp1286
(dp1287
g7
S'cea.demand.hotwater_loads.calc_Qwwf'
p1288
sg9
g1252
sg11
g1253
sg13
g1254
sbg1
(g2
g3
Ntp1289
Rp1290
(dp1291
g7
S'cea.demand.hotwater_loads.calc_Qww'
p1292
sg9
g1252
sg11
S'calc_Qww'
p1293
sg13
g1254
sbtp1294
a(g1
(g2
g3
Ntp1295
Rp1296
(dp1297
g7
S'cea.demand.hotwater_loads.calc_Qwwf'
p1298
sg9
g1252
sg11
g1253
sg13
g1254
sbg1
(g2
g3
Ntp1299
Rp1300
(dp1301
g7
S'cea.demand.hotwater_loads.calc_Qww_dis_ls_r'
p1302
sg9
g1252
sg11
S'calc_Qww_dis_ls_r'
p1303
sg13
g1254
sbtp1304
a(g1
(g2
g3
Ntp1305
Rp1306
(dp1307
g7
S'cea.demand.hotwater_loads.calc_Qww_dis_ls_r'
p1308
sg9
g1252
sg11
g1303
sg13
g1254
sbg1
(g2
g3
Ntp1309
Rp1310
(dp1311
g7
S'cea.demand.hotwater_loads.calc_disls'
p1312
sg9
g1252
sg11
S'calc_disls'
p1313
sg13
g1254
sbtp1314
a(g1
(g2
g3
Ntp1315
Rp1316
(dp1317
g7
S'cea.demand.hotwater_loads.calc_Qwwf'
p1318
sg9
g1252
sg11
g1253
sg13
g1254
sbg1
(g2
g3
Ntp1319
Rp1320
(dp1321
g7
S'cea.demand.hotwater_loads.calc_Qww_dis_ls_nr'
p1322
sg9
g1252
sg11
S'calc_Qww_dis_ls_nr'
p1323
sg13
g1254
sbtp1324
a(g1
(g2
g3
Ntp1325
Rp1326
(dp1327
g7
S'cea.demand.hotwater_loads.calc_Qww_dis_ls_nr'
p1328
sg9
g1252
sg11
g1323
sg13
g1254
sbg1
(g2
g3
Ntp1329
Rp1330
(dp1331
g7
S'cea.demand.hotwater_loads.calc_disls'
p1332
sg9
g1252
sg11
g1313
sg13
g1254
sbtp1333
a(g1
(g2
g3
Ntp1334
Rp1335
(dp1336
g7
S'cea.demand.hotwater_loads.calc_Qwwf'
p1337
sg9
g1252
sg11
g1253
sg13
g1254
sbg1
(g2
g3
Ntp1338
Rp1339
(dp1340
g7
S'cea.demand.hotwater_loads.calc_Qww_st_ls'
p1341
sg9
g1252
sg11
S'calc_Qww_st_ls'
p1342
sg13
g1254
sbtp1343
a(g1
(g2
g3
Ntp1344
Rp1345
(dp1346
g7
S'cea.demand.hotwater_loads.calc_Qww_st_ls'
p1347
sg9
g1252
sg11
g1342
sg13
g1254
sbg1
(g2
g3
Ntp1348
Rp1349
(dp1350
g7
S'cea.technologies.storagetank.calc_Qww_ls_st'
p1351
sg9
S'cea\\technologies\\storagetank.py'
p1352
sg11
S'calc_Qww_ls_st'
p1353
sg13
S'cea.technologies.storagetank'
p1354
sbtp1355
a(g1
(g2
g3
Ntp1356
Rp1357
(dp1358
g7
S'cea.demand.hotwater_loads.calc_Qww_st_ls'
p1359
sg9
g1252
sg11
g1342
sg13
g1254
sbg1
(g2
g3
Ntp1360
Rp1361
(dp1362
g7
S'cea.technologies.storagetank.solve_ode_storage'
p1363
sg9
g1352
sg11
S'solve_ode_storage'
p1364
sg13
g1354
sbtp1365
a(g1
(g2
g3
Ntp1366
Rp1367
(dp1368
g7
S'cea.technologies.storagetank.solve_ode_storage'
p1369
sg9
g1352
sg11
g1364
sg13
g1354
sbg1
(g2
g3
Ntp1370
Rp1371
(dp1372
g7
S'cea.technologies.storagetank.ode'
p1373
sg9
g1352
sg11
S'ode'
p1374
sg13
g1354
sbtp1375
a(g1
(g2
g3
Ntp1376
Rp1377
(dp1378
g7
S'cea.demand.thermal_loads.calc_thermal_loads'
p1379
sg9
g137
sg11
g600
sg13
g138
sbg1
(g2
g3
Ntp1380
Rp1381
(dp1382
g7
S'cea.demand.electrical_loads.calc_Eauxf'
p1383
sg9
g660
sg11
S'calc_Eauxf'
p1384
sg13
g662
sbtp1385
a(g1
(g2
g3
Ntp1386
Rp1387
(dp1388
g7
S'cea.demand.electrical_loads.calc_Eauxf'
p1389
sg9
g660
sg11
g1384
sg13
g662
sbg1
(g2
g3
Ntp1390
Rp1391
(dp1392
g7
S'cea.demand.electrical_loads.calc_Eauxf_ww'
p1393
sg9
g660
sg11
S'calc_Eauxf_ww'
p1394
sg13
g662
sbtp1395
a(g1
(g2
g3
Ntp1396
Rp1397
(dp1398
g7
S'cea.demand.electrical_loads.calc_Eauxf'
p1399
sg9
g660
sg11
g1384
sg13
g662
sbg1
(g2
g3
Ntp1400
Rp1401
(dp1402
g7
S'cea.demand.electrical_loads.calc_Eauxf_hs_dis'
p1403
sg9
g660
sg11
S'calc_Eauxf_hs_dis'
p1404
sg13
g662
sbtp1405
a(g1
(g2
g3
Ntp1406
Rp1407
(dp1408
g7
S'cea.demand.electrical_loads.calc_Eauxf'
p1409
sg9
g660
sg11
g1384
sg13
g662
sbg1
(g2
g3
Ntp1410
Rp1411
(dp1412
g7
S'cea.demand.electrical_loads.calc_Eauxf_cs_dis'
p1413
sg9
g660
sg11
S'calc_Eauxf_cs_dis'
p1414
sg13
g662
sbtp1415
a(g1
(g2
g3
Ntp1416
Rp1417
(dp1418
g7
S'cea.demand.electrical_loads.calc_Eauxf'
p1419
sg9
g660
sg11
g1384
sg13
g662
sbg1
(g2
g3
Ntp1420
Rp1421
(dp1422
g7
S'cea.demand.electrical_loads.calc_Eauxf_fw'
p1423
sg9
g660
sg11
S'calc_Eauxf_fw'
p1424
sg13
g662
sbtp1425
a(g1
(g2
g3
Ntp1426
Rp1427
(dp1428
g7
S'cea.demand.electrical_loads.calc_Eauxf'
p1429
sg9
g660
sg11
g1384
sg13
g662
sbg1
(g2
g3
Ntp1430
Rp1431
(dp1432
g7
S'cea.demand.electrical_loads.calc_Eauxf_ve'
p1433
sg9
g660
sg11
S'calc_Eauxf_ve'
p1434
sg13
g662
sbtp1435
a(g1
(g2
g3
Ntp1436
Rp1437
(dp1438
g7
S'cea.demand.thermal_loads.calc_thermal_loads'
p1439
sg9
g137
sg11
g600
sg13
g138
sbg1
(g2
g3
Ntp1440
Rp1441
(dp1442
g7
S'cea.demand.demand_writers.HourlyDemandWriter.results_to_csv'
p1443
sg9
g42
sg11
S'results_to_csv'
p1444
sg13
g43
sbtp1445
a(g1
(g2
g3
Ntp1446
Rp1447
(dp1448
g7
S'cea.demand.demand_writers.HourlyDemandWriter.results_to_csv'
p1449
sg9
g42
sg11
g1444
sg13
g43
sbg1
(g2
g3
Ntp1450
Rp1451
(dp1452
g7
S'cea.demand.demand_writers.<genexpr>'
p1453
sg9
g42
sg11
S'<genexpr>'
p1454
sg13
g43
sbtp1455
a(g1
(g2
g3
Ntp1456
Rp1457
(dp1458
g7
S'cea.demand.demand_writers.HourlyDemandWriter.results_to_csv'
p1459
sg9
g42
sg11
g1444
sg13
g43
sbg1
(g2
g3
Ntp1460
Rp1461
(dp1462
g7
S'cea.demand.demand_writers.HourlyDemandWriter.write_to_csv'
p1463
sg9
g42
sg11
S'write_to_csv'
p1464
sg13
g43
sbtp1465
a(g1
(g2
g3
Ntp1466
Rp1467
(dp1468
g7
S'cea.demand.demand_writers.HourlyDemandWriter.write_to_csv'
p1469
sg9
g42
sg11
g1464
sg13
g43
sbg1
(g2
g3
Ntp1470
Rp1471
(dp1472
g7
S'cea.inputlocator.InputLocator.get_demand_results_file'
p1473
sg9
S'cea\\inputlocator.py'
p1474
sg11
S'get_demand_results_file'
p1475
sg13
g65
sbtp1476
a(g1
(g2
g3
Ntp1477
Rp1478
(dp1479
g7
S'cea.inputlocator.InputLocator.get_demand_results_file'
p1480
sg9
g1474
sg11
g1475
sg13
g65
sbg1
(g2
g3
Ntp1481
Rp1482
(dp1483
g7
S'cea.inputlocator.InputLocator.get_demand_results_folder'
p1484
sg9
S'cea\\inputlocator.py'
p1485
sg11
S'get_demand_results_folder'
p1486
sg13
g65
sbtp1487
a(g1
(g2
g3
Ntp1488
Rp1489
(dp1490
g7
S'cea.inputlocator.InputLocator.get_demand_results_folder'
p1491
sg9
g1485
sg11
g1486
sg13
g65
sbg1
(g2
g3
Ntp1492
Rp1493
(dp1494
g7
S'cea.inputlocator._ensure_folder'
p1495
sg9
g86
sg11
g87
sg13
g65
sbtp1496
a(g1
(g2
g3
Ntp1497
Rp1498
(dp1499
g7
S'cea.demand.demand_writers.HourlyDemandWriter.results_to_csv'
p1500
sg9
g42
sg11
g1444
sg13
g43
sbg1
(g2
g3
Ntp1501
Rp1502
(dp1503
g7
S'cea.inputlocator.InputLocator.get_temporary_file'
p1504
sg9
S'cea\\inputlocator.py'
p1505
sg11
S'get_temporary_file'
p1506
sg13
g65
sbtp1507
a(g1
(g2
g3
Ntp1508
Rp1509
(dp1510
g7
S'cea.inputlocator.InputLocator.get_temporary_file'
p1511
sg9
g1505
sg11
g1506
sg13
g65
sbg1
(g2
g3
Ntp1512
Rp1513
(dp1514
g7
S'cea.inputlocator.InputLocator.get_temporary_folder'
p1515
sg9
S'cea\\inputlocator.py'
p1516
sg11
S'get_temporary_folder'
p1517
sg13
g65
sbtp1518
a(g1
(g2
g3
Ntp1519
Rp1520
(dp1521
g7
S'cea.demand.thermal_loads.calc_thermal_loads'
p1522
sg9
g137
sg11
g600
sg13
g138
sbg1
(g2
g3
Ntp1523
Rp1524
(dp1525
g7
S'cea.inputlocator.InputLocator.get_demand_results_folder'
p1526
sg9
g1485
sg11
g1486
sg13
g65
sbtp1527
a(g1
(g2
g3
Ntp1528
Rp1529
(dp1530
g7
S'cea.demand.thermal_loads.calc_thermal_loads'
p1531
sg9
g137
sg11
g600
sg13
g138
sbg1
(g2
g3
Ntp1532
Rp1533
(dp1534
g7
S'cea.globalvar.GlobalVariables.report'
p1535
sg9
g30
sg11
S'report'
p1536
sg13
g32
sbtp1537
a(g1
(g2
g3
Ntp1538
Rp1539
(dp1540
g7
S'cea.demand.demand_main.thermal_loads_all_buildings'
p1541
sg9
g10
sg11
g441
sg13
g14
sbg1
(g2
g3
Ntp1542
Rp1543
(dp1544
g7
S'cea.globalvar.GlobalVariables.log'
p1545
sg9
g30
sg11
g148
sg13
g32
sbtp1546
a(g1
(g2
g3
Ntp1547
Rp1548
(dp1549
g7
S'cea.demand.thermal_loads.calc_thermal_loads'
p1550
sg9
g137
sg11
g600
sg13
g138
sbg1
(g2
g3
Ntp1551
Rp1552
(dp1553
g7
S'cea.demand.thermal_loads.<genexpr>'
p1554
sg9
g137
sg11
S'<genexpr>'
p1555
sg13
g138
sbtp1556
a(g1
(g2
g3
Ntp1557
Rp1558
(dp1559
g7
S'cea.demand.demand_main.demand_calculation'
p1560
sg9
g10
sg11
g58
sg13
g14
sbg1
(g2
g3
Ntp1561
Rp1562
(dp1563
g7
S'cea.demand.demand_writers.HourlyDemandWriter.write_totals_csv'
p1564
sg9
g42
sg11
S'write_totals_csv'
p1565
sg13
g43
sbtp1566
a(g1
(g2
g3
Ntp1567
Rp1568
(dp1569
g7
S'cea.demand.demand_writers.HourlyDemandWriter.write_totals_csv'
p1570
sg9
g42
sg11
g1565
sg13
g43
sbg1
(g2
g3
Ntp1571
Rp1572
(dp1573
g7
S'cea.demand.thermal_loads.BuildingProperties.list_building_names'
p1574
sg9
g137
sg11
g431
sg13
g138
sbtp1575
a(g1
(g2
g3
Ntp1576
Rp1577
(dp1578
g7
S'cea.demand.demand_writers.HourlyDemandWriter.write_totals_csv'
p1579
sg9
g42
sg11
g1565
sg13
g43
sbg1
(g2
g3
Ntp1580
Rp1581
(dp1582
g7
S'cea.inputlocator.InputLocator.get_temporary_file'
p1583
sg9
g1505
sg11
g1506
sg13
g65
sbtp1584
a(g1
(g2
g3
Ntp1585
Rp1586
(dp1587
g7
S'cea.demand.demand_writers.HourlyDemandWriter.write_totals_csv'
p1588
sg9
g42
sg11
g1565
sg13
g43
sbg1
(g2
g3
Ntp1589
Rp1590
(dp1591
g7
S'cea.inputlocator.InputLocator.get_total_demand'
p1592
sg9
S'cea\\inputlocator.py'
p1593
sg11
S'get_total_demand'
p1594
sg13
g65
sbtp1595
a(g1
(g2
g3
Ntp1596
Rp1597
(dp1598
g7
S'cea.inputlocator.InputLocator.get_total_demand'
p1599
sg9
g1593
sg11
g1594
sg13
g65
sbg1
(g2
g3
Ntp1600
Rp1601
(dp1602
g7
S'cea.inputlocator.InputLocator.get_demand_results_folder'
p1603
sg9
g1485
sg11
g1486
sg13
g65
sbtp1604
a(g1
(g2
g3
Ntp1605
Rp1606
(dp1607
g7
S'cea.demand.demand_writers.HourlyDemandWriter.write_totals_csv'
p1608
sg9
g42
sg11
g1565
sg13
g43
sbg1
(g2
g3
Ntp1609
Rp1610
(dp1611
g7
S'cea.inputlocator.InputLocator.get_demand_results_file'
p1612
sg9
g1474
sg11
g1475
sg13
g65
sbtp1613
a(g1
(g2
g3
Ntp1614
Rp1615
(dp1616
g7
S'cea.demand.demand_main.demand_calculation'
p1617
sg9
g10
sg11
g58
sg13
g14
sbg1
(g2
g3
Ntp1618
Rp1619
(dp1620
g7
S'cea.globalvar.GlobalVariables.log'
p1621
sg9
g30
sg11
g148
sg13
g32
sbtp1622
a.