(lp0
(ccopy_reg
_reconstructor
p1
(c__main__
TraceDataInfo
p2
c__builtin__
object
p3
Ntp4
Rp5
(dp6
S'fqname'
p7
S'cea.analysis.embodied.lca_embodied'
p8
sS'path'
p9
S'cea\\analysis\\embodied.py'
p10
sS'name'
p11
S'lca_embodied'
p12
sS'module'
p13
S'cea.analysis.embodied'
p14
sbg1
(g2
g3
Ntp15
Rp16
(dp17
g7
S'cea.inputlocator.InputLocator.get_building_architecture'
p18
sg9
S'cea\\inputlocator.py'
p19
sg11
S'get_building_architecture'
p20
sg13
S'cea.inputlocator'
p21
sbtp22
a(g1
(g2
g3
Ntp23
Rp24
(dp25
g7
S'cea.analysis.embodied.lca_embodied'
p26
sg9
g10
sg11
g12
sg13
g14
sbg1
(g2
g3
Ntp27
Rp28
(dp29
g7
S'cea.inputlocator.InputLocator.get_building_occupancy'
p30
sg9
S'cea\\inputlocator.py'
p31
sg11
S'get_building_occupancy'
p32
sg13
g21
sbtp33
a(g1
(g2
g3
Ntp34
Rp35
(dp36
g7
S'cea.analysis.embodied.lca_embodied'
p37
sg9
g10
sg11
g12
sg13
g14
sbg1
(g2
g3
Ntp38
Rp39
(dp40
g7
S'cea.inputlocator.InputLocator.get_building_age'
p41
sg9
S'cea\\inputlocator.py'
p42
sg11
S'get_building_age'
p43
sg13
g21
sbtp44
a(g1
(g2
g3
Ntp45
Rp46
(dp47
g7
S'cea.analysis.embodied.lca_embodied'
p48
sg9
g10
sg11
g12
sg13
g14
sbg1
(g2
g3
Ntp49
Rp50
(dp51
g7
S'cea.inputlocator.InputLocator.get_zone_geometry'
p52
sg9
S'cea\\inputlocator.py'
p53
sg11
S'get_zone_geometry'
p54
sg13
g21
sbtp55
a(g1
(g2
g3
Ntp56
Rp57
(dp58
g7
S'cea.analysis.embodied.lca_embodied'
p59
sg9
g10
sg11
g12
sg13
g14
sbg1
(g2
g3
Ntp60
Rp61
(dp62
g7
S'cea.analysis.embodied.calc_mainuse'
p63
sg9
g10
sg11
S'calc_mainuse'
p64
sg13
g14
sbtp65
a(g1
(g2
g3
Ntp66
Rp67
(dp68
g7
S'cea.analysis.embodied.calc_mainuse'
p69
sg9
g10
sg11
g64
sg13
g14
sbg1
(g2
g3
Ntp70
Rp71
(dp72
g7
S'cea.analysis.embodied.calc_comparison'
p73
sg9
g10
sg11
S'calc_comparison'
p74
sg13
g14
sbtp75
a(g1
(g2
g3
Ntp76
Rp77
(dp78
g7
S'cea.analysis.embodied.lca_embodied'
p79
sg9
g10
sg11
g12
sg13
g14
sbg1
(g2
g3
Ntp80
Rp81
(dp82
g7
S'cea.analysis.embodied.<lambda>'
p83
sg9
g10
sg11
S'<lambda>'
p84
sg13
g14
sbtp85
a(g1
(g2
g3
Ntp86
Rp87
(dp88
g7
S'cea.analysis.embodied.<lambda>'
p89
sg9
g10
sg11
g84
sg13
g14
sbg1
(g2
g3
Ntp90
Rp91
(dp92
g7
S'cea.analysis.embodied.calc_category_construction'
p93
sg9
g10
sg11
S'calc_category_construction'
p94
sg13
g14
sbtp95
a(g1
(g2
g3
Ntp96
Rp97
(dp98
g7
S'cea.analysis.embodied.<lambda>'
p99
sg9
g10
sg11
g84
sg13
g14
sbg1
(g2
g3
Ntp100
Rp101
(dp102
g7
S'cea.analysis.embodied.calc_category_retrofit'
p103
sg9
g10
sg11
S'calc_category_retrofit'
p104
sg13
g14
sbtp105
a(g1
(g2
g3
Ntp106
Rp107
(dp108
g7
S'cea.analysis.embodied.lca_embodied'
p109
sg9
g10
sg11
g12
sg13
g14
sbg1
(g2
g3
Ntp110
Rp111
(dp112
g7
S'cea.analysis.embodied.calculate_contributions'
p113
sg9
g10
sg11
S'calculate_contributions'
p114
sg13
g14
sbtp115
a(g1
(g2
g3
Ntp116
Rp117
(dp118
g7
S'cea.analysis.embodied.calculate_contributions'
p119
sg9
g10
sg11
g114
sg13
g14
sbg1
(g2
g3
Ntp120
Rp121
(dp122
g7
S'cea.inputlocator.InputLocator.get_archetypes_properties'
p123
sg9
S'cea\\inputlocator.py'
p124
sg11
S'get_archetypes_properties'
p125
sg13
g21
sbtp126
a(g1
(g2
g3
Ntp127
Rp128
(dp129
g7
S'cea.analysis.embodied.calculate_contributions'
p130
sg9
g10
sg11
g114
sg13
g14
sbg1
(g2
g3
Ntp131
Rp132
(dp133
g7
S'cea.analysis.embodied.<lambda>'
p134
sg9
g10
sg11
g84
sg13
g14
sbtp135
a(g1
(g2
g3
Ntp136
Rp137
(dp138
g7
S'cea.analysis.embodied.<lambda>'
p139
sg9
g10
sg11
g84
sg13
g14
sbg1
(g2
g3
Ntp140
Rp141
(dp142
g7
S'cea.analysis.embodied.calc_if_existing'
p143
sg9
g10
sg11
S'calc_if_existing'
p144
sg13
g14
sbtp145
a(g1
(g2
g3
Ntp146
Rp147
(dp148
g7
S'cea.analysis.embodied.lca_embodied'
p149
sg9
g10
sg11
g12
sg13
g14
sbg1
(g2
g3
Ntp150
Rp151
(dp152
g7
S'cea.inputlocator.InputLocator.get_lca_embodied'
p153
sg9
S'cea\\inputlocator.py'
p154
sg11
S'get_lca_embodied'
p155
sg13
g21
sbtp156
a(g1
(g2
g3
Ntp157
Rp158
(dp159
g7
S'cea.inputlocator.InputLocator.get_lca_embodied'
p160
sg9
g154
sg11
g155
sg13
g21
sbg1
(g2
g3
Ntp161
Rp162
(dp163
g7
S'cea.inputlocator.InputLocator.get_lca_emissions_results_folder'
p164
sg9
S'cea\\inputlocator.py'
p165
sg11
S'get_lca_emissions_results_folder'
p166
sg13
g21
sbtp167
a.