(lp0
(ccopy_reg
_reconstructor
p1
(c__main__
TraceDataInfo
p2
c__builtin__
object
p3
Ntp4
Rp5
(dp6
S'fqname'
p7
S'cea.analysis.operation.cost_operation'
p8
sS'path'
p9
S'cea\\analysis\\operation.py'
p10
sS'name'
p11
S'cost_operation'
p12
sS'module'
p13
S'cea.analysis.operation'
p14
sbg1
(g2
g3
Ntp15
Rp16
(dp17
g7
S'cea.inputlocator.InputLocator.get_total_demand'
p18
sg9
S'cea\\inputlocator.py'
p19
sg11
S'get_total_demand'
p20
sg13
S'cea.inputlocator'
p21
sbtp22
a(g1
(g2
g3
Ntp23
Rp24
(dp25
g7
S'cea.inputlocator.InputLocator.get_total_demand'
p26
sg9
g19
sg11
g20
sg13
g21
sbg1
(g2
g3
Ntp27
Rp28
(dp29
g7
S'cea.inputlocator.InputLocator.get_demand_results_folder'
p30
sg9
S'cea\\inputlocator.py'
p31
sg11
S'get_demand_results_folder'
p32
sg13
g21
sbtp33
a(g1
(g2
g3
Ntp34
Rp35
(dp36
g7
S'cea.inputlocator.InputLocator.get_demand_results_folder'
p37
sg9
g31
sg11
g32
sg13
g21
sbg1
(g2
g3
Ntp38
Rp39
(dp40
g7
S'cea.inputlocator._ensure_folder'
p41
sg9
S'cea\\inputlocator.py'
p42
sg11
S'_ensure_folder'
p43
sg13
g21
sbtp44
a(g1
(g2
g3
Ntp45
Rp46
(dp47
g7
S'cea.analysis.operation.cost_operation'
p48
sg9
g10
sg11
g12
sg13
g14
sbg1
(g2
g3
Ntp49
Rp50
(dp51
g7
S'cea.inputlocator.InputLocator.get_building_supply'
p52
sg9
S'cea\\inputlocator.py'
p53
sg11
S'get_building_supply'
p54
sg13
g21
sbtp55
a(g1
(g2
g3
Ntp56
Rp57
(dp58
g7
S'cea.analysis.operation.cost_operation'
p59
sg9
g10
sg11
g12
sg13
g14
sbg1
(g2
g3
Ntp60
Rp61
(dp62
g7
S'cea.inputlocator.InputLocator.get_life_cycle_inventory_supply_systems'
p63
sg9
S'cea\\inputlocator.py'
p64
sg11
S'get_life_cycle_inventory_supply_systems'
p65
sg13
g21
sbtp66
a(g1
(g2
g3
Ntp67
Rp68
(dp69
g7
S'cea.analysis.operation.cost_operation'
p70
sg9
g10
sg11
g12
sg13
g14
sbg1
(g2
g3
Ntp71
Rp72
(dp73
g7
S'cea.inputlocator.InputLocator.get_lca_emissions_results_folder'
p74
sg9
S'cea\\inputlocator.py'
p75
sg11
S'get_lca_emissions_results_folder'
p76
sg13
g21
sbtp77
a(g1
(g2
g3
Ntp78
Rp79
(dp80
g7
S'cea.analysis.operation.cost_operation'
p81
sg9
g10
sg11
g12
sg13
g14
sbg1
(g2
g3
Ntp82
Rp83
(dp84
g7
S'cea.inputlocator.InputLocator.get_lca_operation'
p85
sg9
S'cea\\inputlocator.py'
p86
sg11
S'get_lca_operation'
p87
sg13
g21
sbtp88
a(g1
(g2
g3
Ntp89
Rp90
(dp91
g7
S'cea.inputlocator.InputLocator.get_lca_operation'
p92
sg9
g86
sg11
g87
sg13
g21
sbg1
(g2
g3
Ntp93
Rp94
(dp95
g7
S'cea.inputlocator.InputLocator.get_lca_emissions_results_folder'
p96
sg9
g75
sg11
g76
sg13
g21
sbtp97
a.