(lp0
(ccopy_reg
_reconstructor
p1
(c__main__
TraceDataInfo
p2
c__builtin__
object
p3
Ntp4
Rp5
(dp6
S'fqname'
p7
S'cea.analysis.operation.lca_operation'
p8
sS'path'
p9
S'cea\\analysis\\operation.py'
p10
sS'name'
p11
S'lca_operation'
p12
sS'module'
p13
S'cea.analysis.operation'
p14
sbg1
(g2
g3
Ntp15
Rp16
(dp17
g7
S'cea.inputlocator.InputLocator.get_total_demand'
p18
sg9
S'cea\\inputlocator.py'
p19
sg11
S'get_total_demand'
p20
sg13
S'cea.inputlocator'
p21
sbtp22
a(g1
(g2
g3
Ntp23
Rp24
(dp25
g7
S'cea.inputlocator.InputLocator.get_total_demand'
p26
sg9
g19
sg11
g20
sg13
g21
sbg1
(g2
g3
Ntp27
Rp28
(dp29
g7
S'cea.inputlocator.InputLocator.get_demand_results_folder'
p30
sg9
g19
sg11
S'get_demand_results_folder'
p31
sg13
g21
sbtp32
a(g1
(g2
g3
Ntp33
Rp34
(dp35
g7
S'cea.inputlocator.InputLocator.get_demand_results_folder'
p36
sg9
g19
sg11
g31
sg13
g21
sbg1
(g2
g3
Ntp37
Rp38
(dp39
g7
S'cea.inputlocator._ensure_folder'
p40
sg9
g19
sg11
S'_ensure_folder'
p41
sg13
g21
sbtp42
a(g1
(g2
g3
Ntp43
Rp44
(dp45
g7
S'cea.analysis.operation.lca_operation'
p46
sg9
g10
sg11
g12
sg13
g14
sbg1
(g2
g3
Ntp47
Rp48
(dp49
g7
S'cea.inputlocator.InputLocator.get_building_supply'
p50
sg9
g19
sg11
S'get_building_supply'
p51
sg13
g21
sbtp52
a(g1
(g2
g3
Ntp53
Rp54
(dp55
g7
S'cea.analysis.operation.lca_operation'
p56
sg9
g10
sg11
g12
sg13
g14
sbg1
(g2
g3
Ntp57
Rp58
(dp59
g7
S'cea.inputlocator.InputLocator.get_life_cycle_inventory_supply_systems'
p60
sg9
g19
sg11
S'get_life_cycle_inventory_supply_systems'
p61
sg13
g21
sbtp62
a(g1
(g2
g3
Ntp63
Rp64
(dp65
g7
S'cea.analysis.operation.lca_operation'
p66
sg9
g10
sg11
g12
sg13
g14
sbg1
(g2
g3
Ntp67
Rp68
(dp69
g7
S'cea.inputlocator.InputLocator.get_lca_emissions_results_folder'
p70
sg9
g19
sg11
S'get_lca_emissions_results_folder'
p71
sg13
g21
sbtp72
a(g1
(g2
g3
Ntp73
Rp74
(dp75
g7
S'cea.analysis.operation.lca_operation'
p76
sg9
g10
sg11
g12
sg13
g14
sbg1
(g2
g3
Ntp77
Rp78
(dp79
g7
S'cea.inputlocator.InputLocator.get_lca_operation'
p80
sg9
g19
sg11
S'get_lca_operation'
p81
sg13
g21
sbtp82
a(g1
(g2
g3
Ntp83
Rp84
(dp85
g7
S'cea.inputlocator.InputLocator.get_lca_operation'
p86
sg9
g19
sg11
g81
sg13
g21
sbg1
(g2
g3
Ntp87
Rp88
(dp89
g7
S'cea.inputlocator.InputLocator.get_lca_emissions_results_folder'
p90
sg9
g19
sg11
g71
sg13
g21
sbtp91
a.