(lp0
(ccopy_reg
_reconstructor
p1
(c__main__
TraceDataInfo
p2
c__builtin__
object
p3
Ntp4
Rp5
(dp6
S'fqname'
p7
S'cea.inputlocator.InputLocator.get_total_demand'
p8
sS'path'
p9
S'cea\\inputlocator.py'
p10
sS'name'
p11
S'get_total_demand'
p12
sS'module'
p13
S'cea.inputlocator'
p14
sbg1
(g2
g3
Ntp15
Rp16
(dp17
g7
S'cea.inputlocator.InputLocator.get_demand_results_folder'
p18
sg9
S'cea\\inputlocator.py'
p19
sg11
S'get_demand_results_folder'
p20
sg13
g14
sbtp21
a(g1
(g2
g3
Ntp22
Rp23
(dp24
g7
S'cea.inputlocator.InputLocator.get_demand_results_folder'
p25
sg9
g19
sg11
g20
sg13
g14
sbg1
(g2
g3
Ntp26
Rp27
(dp28
g7
S'cea.inputlocator._ensure_folder'
p29
sg9
S'cea\\inputlocator.py'
p30
sg11
S'_ensure_folder'
p31
sg13
g14
sbtp32
a(g1
(g2
g3
Ntp33
Rp34
(dp35
g7
S'cea.inputlocator.InputLocator.get_heatmaps_demand_folder'
p36
sg9
S'cea\\inputlocator.py'
p37
sg11
S'get_heatmaps_demand_folder'
p38
sg13
g14
sbg1
(g2
g3
Ntp39
Rp40
(dp41
g7
S'cea.inputlocator._ensure_folder'
p42
sg9
g30
sg11
g31
sg13
g14
sbtp43
a(g1
(g2
g3
Ntp44
Rp45
(dp46
g7
S'cea.plots.heatmaps.heatmaps'
p47
sg9
S'cea\\plots\\heatmaps.py'
p48
sg11
S'heatmaps'
p49
sg13
S'cea.plots.heatmaps'
p50
sbg1
(g2
g3
Ntp51
Rp52
(dp53
g7
S'cea.inputlocator.InputLocator.get_temporary_file'
p54
sg9
S'cea\\inputlocator.py'
p55
sg11
S'get_temporary_file'
p56
sg13
g14
sbtp57
a(g1
(g2
g3
Ntp58
Rp59
(dp60
g7
S'cea.inputlocator.InputLocator.get_temporary_file'
p61
sg9
g55
sg11
g56
sg13
g14
sbg1
(g2
g3
Ntp62
Rp63
(dp64
g7
S'cea.inputlocator.InputLocator.get_temporary_folder'
p65
sg9
S'cea\\inputlocator.py'
p66
sg11
S'get_temporary_folder'
p67
sg13
g14
sbtp68
a(g1
(g2
g3
Ntp69
Rp70
(dp71
g7
S'cea.plots.heatmaps.heatmaps'
p72
sg9
g48
sg11
g49
sg13
g50
sbg1
(g2
g3
Ntp73
Rp74
(dp75
g7
S'cea.inputlocator.InputLocator.get_zone_geometry'
p76
sg9
S'cea\\inputlocator.py'
p77
sg11
S'get_zone_geometry'
p78
sg13
g14
sbtp79
a(g1
(g2
g3
Ntp80
Rp81
(dp82
g7
S'cea.plots.heatmaps.heatmaps'
p83
sg9
g48
sg11
g49
sg13
g50
sbg1
(g2
g3
Ntp84
Rp85
(dp86
g7
S'cea.plots.heatmaps.get_gis_field'
p87
sg9
S'cea\\plots\\heatmaps.py'
p88
sg11
S'get_gis_field'
p89
sg13
g50
sbtp90
a.